---
triple:          'arm64-apple-darwin'
binary-path:     '/Users/rahulgupta/Documents/Samir Gupta/C:C++/os/new'
relocations:
  - { offsetInCU: 0x58D4, offset: 0x58D4, size: 0x8, addend: 0x0, symName: __ZNSt3__124__put_character_sequenceB8ue170006IcNS_11char_traitsIcEEEERNS_13basic_ostreamIT_T0_EES7_PKS4_m, symObjAddr: 0x6D44, symBinAddr: 0x100009B50, symSize: 0x1EC }
  - { offsetInCU: 0x7423, offset: 0x7423, size: 0x8, addend: 0x0, symName: __ZNSt3__113__fill_n_trueB8ue170006INS_6vectorIbNS_9allocatorIbEEEEEEvNS_14__bit_iteratorIT_Lb0EXLi0EEEENS6_9size_typeE, symObjAddr: 0x7B40, symBinAddr: 0x10000A94C, symSize: 0x160 }
  - { offsetInCU: 0x74E8, offset: 0x74E8, size: 0x8, addend: 0x0, symName: __ZNSt3__114__fill_n_falseB8ue170006INS_6vectorIbNS_9allocatorIbEEEEEEvNS_14__bit_iteratorIT_Lb0EXLi0EEEENS6_9size_typeE, symObjAddr: 0x7CD4, symBinAddr: 0x10000AAE0, symSize: 0x15C }
  - { offsetInCU: 0x9350, offset: 0x9350, size: 0x8, addend: 0x0, symName: __ZNSt3__17getlineB8ue170006IcNS_11char_traitsIcEENS_9allocatorIcEEEERNS_13basic_istreamIT_T0_EES9_RNS_12basic_stringIS6_S7_T1_EE, symObjAddr: 0x598, symBinAddr: 0x1000033A4, symSize: 0x5C }
  - { offsetInCU: 0x93A8, offset: 0x93A8, size: 0x8, addend: 0x0, symName: __ZNSt3__1eqB8ue170006IcNS_11char_traitsIcEENS_9allocatorIcEEEEbRKNS_12basic_stringIT_T0_T1_EEPKS6_, symObjAddr: 0x620, symBinAddr: 0x10000342C, symSize: 0xAC }
  - { offsetInCU: 0x941A, offset: 0x941A, size: 0x8, addend: 0x0, symName: __ZNSt3__1lsB8ue170006INS_11char_traitsIcEEEERNS_13basic_ostreamIcT_EES6_PKc, symObjAddr: 0xC94, symBinAddr: 0x100003AA0, symSize: 0x48 }
  - { offsetInCU: 0x9460, offset: 0x9460, size: 0x8, addend: 0x0, symName: __ZNSt3__13maxB8ue170006IiEERKT_S3_S3_, symObjAddr: 0xD30, symBinAddr: 0x100003B3C, symSize: 0x2C }
  - { offsetInCU: 0x94A3, offset: 0x94A3, size: 0x8, addend: 0x0, symName: __ZNSt3__1lsB8ue170006IcNS_11char_traitsIcEENS_9allocatorIcEEEERNS_13basic_ostreamIT_T0_EES9_RKNS_12basic_stringIS6_S7_T1_EE, symObjAddr: 0xD5C, symBinAddr: 0x100003B68, symSize: 0x4C }
  - { offsetInCU: 0x94FB, offset: 0x94FB, size: 0x8, addend: 0x0, symName: __ZNSt3__1neB8ue170006IP7ProcessEEbRKNS_11__wrap_iterIT_EES7_, symObjAddr: 0xE08, symBinAddr: 0x100003C14, symSize: 0x34 }
  - { offsetInCU: 0x9612, offset: 0x9612, size: 0x8, addend: 0x0, symName: __ZNSt3__13minB8ue170006IiEERKT_S3_S3_, symObjAddr: 0x1CF8, symBinAddr: 0x100004B04, symSize: 0x2C }
  - { offsetInCU: 0x9655, offset: 0x9655, size: 0x8, addend: 0x0, symName: __ZNSt3__1lsB8ue170006IcNS_11char_traitsIcEEEERNS_13basic_ostreamIT_T0_EES7_RKNS_8__iom_t5E, symObjAddr: 0x252C, symBinAddr: 0x100005338, symSize: 0x40 }
  - { offsetInCU: 0x96A1, offset: 0x96A1, size: 0x8, addend: 0x0, symName: __ZNSt3__15fixedB8ue170006ERNS_8ios_baseE, symObjAddr: 0x25AC, symBinAddr: 0x1000053B8, symSize: 0x30 }
  - { offsetInCU: 0x96CF, offset: 0x96CF, size: 0x8, addend: 0x0, symName: __ZNSt3__112setprecisionB8ue170006Ei, symObjAddr: 0x25DC, symBinAddr: 0x1000053E8, symSize: 0x2C }
  - { offsetInCU: 0x96FB, offset: 0x96FB, size: 0x8, addend: 0x0, symName: __ZNSt3__1rsB8ue170006IcNS_11char_traitsIcEENS_9allocatorIcEEEERNS_13basic_istreamIT_T0_EES9_RNS_12basic_stringIS6_S7_T1_EE, symObjAddr: 0x2820, symBinAddr: 0x10000562C, symSize: 0x308 }
  - { offsetInCU: 0x993E, offset: 0x993E, size: 0x8, addend: 0x0, symName: __ZNSt3__13maxB8ue170006IiNS_6__lessIvvEEEERKT_S5_S5_T0_, symObjAddr: 0x2E38, symBinAddr: 0x100005C44, symSize: 0x54 }
  - { offsetInCU: 0x9A0E, offset: 0x9A0E, size: 0x8, addend: 0x0, symName: __ZNSt3__1eqB8ue170006IP7ProcessEEbRKNS_11__wrap_iterIT_EES7_, symObjAddr: 0x2EC0, symBinAddr: 0x100005CCC, symSize: 0x48 }
  - { offsetInCU: 0x9A51, offset: 0x9A51, size: 0x8, addend: 0x0, symName: __ZNSt3__13minB8ue170006IiNS_6__lessIvvEEEERKT_S5_S5_T0_, symObjAddr: 0x2F54, symBinAddr: 0x100005D60, symSize: 0x54 }
  - { offsetInCU: 0x9AAB, offset: 0x9AAB, size: 0x8, addend: 0x0, symName: __ZNSt3__119__libcpp_deallocateB8ue170006EPvmm, symObjAddr: 0x35E8, symBinAddr: 0x1000063F4, symSize: 0x30 }
  - { offsetInCU: 0x9AF3, offset: 0x9AF3, size: 0x8, addend: 0x0, symName: __ZNSt3__127__do_deallocate_handle_sizeB8ue170006IJEEEvPvmDpT_, symObjAddr: 0x3618, symBinAddr: 0x100006424, symSize: 0x28 }
  - { offsetInCU: 0x9B31, offset: 0x9B31, size: 0x8, addend: 0x0, symName: __ZNSt3__124__libcpp_operator_deleteB8ue170006IJPvEEEvDpT_, symObjAddr: 0x3640, symBinAddr: 0x10000644C, symSize: 0x24 }
  - { offsetInCU: 0x9B99, offset: 0x9B99, size: 0x8, addend: 0x0, symName: __ZNSt3__112__to_addressB8ue170006IKcEEPT_S3_, symObjAddr: 0x38BC, symBinAddr: 0x1000066C8, symSize: 0x14 }
  - { offsetInCU: 0x9C01, offset: 0x9C01, size: 0x8, addend: 0x0, symName: __ZNSt3__17getlineB8ue170006IcNS_11char_traitsIcEENS_9allocatorIcEEEERNS_13basic_istreamIT_T0_EES9_RNS_12basic_stringIS6_S7_T1_EES6_, symObjAddr: 0x39BC, symBinAddr: 0x1000067C8, symSize: 0x238 }
  - { offsetInCU: 0x9EC1, offset: 0x9EC1, size: 0x8, addend: 0x0, symName: __ZNSt3__19use_facetB8ue170006INS_5ctypeIcEEEERKT_RKNS_6localeE, symObjAddr: 0x4120, symBinAddr: 0x100006F2C, symSize: 0x2C }
  - { offsetInCU: 0xA29F, offset: 0xA29F, size: 0x8, addend: 0x0, symName: __ZNSt3__118__constexpr_strlenB8ue170006EPKc, symObjAddr: 0x4208, symBinAddr: 0x100007014, symSize: 0x24 }
  - { offsetInCU: 0xA2CB, offset: 0xA2CB, size: 0x8, addend: 0x0, symName: __ZNSt3__110__str_findB8ue170006IcmNS_11char_traitsIcEELm18446744073709551615EEET0_PKT_S3_S6_S3_S3_, symObjAddr: 0x422C, symBinAddr: 0x100007038, symSize: 0xE4 }
  - { offsetInCU: 0xA372, offset: 0xA372, size: 0x8, addend: 0x0, symName: __ZNSt3__118__search_substringB8ue170006IcNS_11char_traitsIcEEEEPKT_S5_S5_S5_S5_, symObjAddr: 0x4310, symBinAddr: 0x10000711C, symSize: 0x154 }
  - { offsetInCU: 0xA40C, offset: 0xA40C, size: 0x8, addend: 0x0, symName: __ZNSt3__118__constexpr_memchrB8ue170006IKccEEPT_S3_T0_m, symObjAddr: 0x4508, symBinAddr: 0x100007314, symSize: 0x40 }
  - { offsetInCU: 0xA482, offset: 0xA482, size: 0x8, addend: 0x0, symName: __ZNSt3__112__to_addressB8ue170006I7ProcessEEPT_S3_, symObjAddr: 0x47D4, symBinAddr: 0x1000075E0, symSize: 0x14 }
  - { offsetInCU: 0xA4B7, offset: 0xA4B7, size: 0x8, addend: 0x0, symName: __ZNSt3__13maxB8ue170006ImEERKT_S3_S3_, symObjAddr: 0x4C54, symBinAddr: 0x100007A60, symSize: 0x2C }
  - { offsetInCU: 0xA4FA, offset: 0xA4FA, size: 0x8, addend: 0x0, symName: __ZNSt3__13minB8ue170006ImEERKT_S3_S3_, symObjAddr: 0x4C80, symBinAddr: 0x100007A8C, symSize: 0x2C }
  - { offsetInCU: 0xA73E, offset: 0xA73E, size: 0x8, addend: 0x0, symName: __ZNSt3__13minB8ue170006ImNS_6__lessIvvEEEERKT_S5_S5_T0_, symObjAddr: 0x4D0C, symBinAddr: 0x100007B18, symSize: 0x54 }
  - { offsetInCU: 0xA798, offset: 0xA798, size: 0x8, addend: 0x0, symName: __ZNSt3__120__throw_length_errorB8ue170006EPKc, symObjAddr: 0x4DEC, symBinAddr: 0x100007BF8, symSize: 0x64 }
  - { offsetInCU: 0xA7C2, offset: 0xA7C2, size: 0x8, addend: 0x0, symName: __ZNSt3__13maxB8ue170006ImNS_6__lessIvvEEEERKT_S5_S5_T0_, symObjAddr: 0x4F30, symBinAddr: 0x100007D3C, symSize: 0x54 }
  - { offsetInCU: 0xA81C, offset: 0xA81C, size: 0x8, addend: 0x0, symName: __ZNSt3__119__allocate_at_leastB8ue170006INS_9allocatorI7ProcessEEEENS_19__allocation_resultINS_16allocator_traitsIT_E7pointerEEERS6_m, symObjAddr: 0x50A0, symBinAddr: 0x100007EAC, symSize: 0x40 }
  - { offsetInCU: 0xA85F, offset: 0xA85F, size: 0x8, addend: 0x0, symName: __ZNSt3__117__libcpp_allocateB8ue170006Emm, symObjAddr: 0x5244, symBinAddr: 0x100008050, symSize: 0x28 }
  - { offsetInCU: 0xA89C, offset: 0xA89C, size: 0x8, addend: 0x0, symName: __ZNSt3__121__libcpp_operator_newB8ue170006IJmEEEPvDpT_, symObjAddr: 0x526C, symBinAddr: 0x100008078, symSize: 0x24 }
  - { offsetInCU: 0xA8D5, offset: 0xA8D5, size: 0x8, addend: 0x0, symName: __ZNSt3__142__uninitialized_allocator_move_if_noexceptB8ue170006INS_9allocatorI7ProcessEENS_16reverse_iteratorIPS2_EES6_S6_EET2_RT_T0_T1_S7_, symObjAddr: 0x53C8, symBinAddr: 0x1000081D4, symSize: 0x12C }
  - { offsetInCU: 0xA975, offset: 0xA975, size: 0x8, addend: 0x0, symName: __ZNSt3__14swapB8ue170006IP7ProcessEENS_9enable_ifIXaasr21is_move_constructibleIT_EE5valuesr18is_move_assignableIS4_EE5valueEvE4typeERS4_S7_, symObjAddr: 0x5540, symBinAddr: 0x10000834C, symSize: 0x3C }
  - { offsetInCU: 0xA9C6, offset: 0xA9C6, size: 0x8, addend: 0x0, symName: __ZNSt3__122__make_exception_guardB8ue170006INS_29_AllocatorDestroyRangeReverseINS_9allocatorI7ProcessEENS_16reverse_iteratorIPS3_EEEEEENS_28__exception_guard_exceptionsIT_EESA_, symObjAddr: 0x568C, symBinAddr: 0x100008498, symSize: 0x4C }
  - { offsetInCU: 0xA9FC, offset: 0xA9FC, size: 0x8, addend: 0x0, symName: __ZNSt3__1neB8ue170006IP7ProcessS2_EEbRKNS_16reverse_iteratorIT_EERKNS3_IT0_EE, symObjAddr: 0x571C, symBinAddr: 0x100008528, symSize: 0x48 }
  - { offsetInCU: 0xAA48, offset: 0xAA48, size: 0x8, addend: 0x0, symName: __ZNSt3__112__to_addressB8ue170006INS_16reverse_iteratorIP7ProcessEEvEEu7__decayIDTclsr19__to_address_helperIT_EE6__callclsr3stdE7declvalIRKS5_EEEEES7_, symObjAddr: 0x5798, symBinAddr: 0x1000085A4, symSize: 0x24 }
  - { offsetInCU: 0xAAA7, offset: 0xAAA7, size: 0x8, addend: 0x0, symName: __ZNSt3__119__allocator_destroyB8ue170006INS_9allocatorI7ProcessEENS_16reverse_iteratorINS4_IPS2_EEEES7_EEvRT_T0_T1_, symObjAddr: 0x5B70, symBinAddr: 0x10000897C, symSize: 0x70 }
  - { offsetInCU: 0xAB0C, offset: 0xAB0C, size: 0x8, addend: 0x0, symName: __ZNSt3__1neB8ue170006INS_16reverse_iteratorIP7ProcessEES4_EEbRKNS1_IT_EERKNS1_IT0_EE, symObjAddr: 0x5C1C, symBinAddr: 0x100008A28, symSize: 0x60 }
  - { offsetInCU: 0xAB58, offset: 0xAB58, size: 0x8, addend: 0x0, symName: __ZNSt3__112__to_addressB8ue170006INS_16reverse_iteratorINS1_IP7ProcessEEEEvEEu7__decayIDTclsr19__to_address_helperIT_EE6__callclsr3stdE7declvalIRKS6_EEEEES8_, symObjAddr: 0x5CA8, symBinAddr: 0x100008AB4, symSize: 0x24 }
  - { offsetInCU: 0xABB7, offset: 0xABB7, size: 0x8, addend: 0x0, symName: __ZNSt3__122__make_exception_guardB8ue170006INS_6vectorI7ProcessNS_9allocatorIS2_EEE16__destroy_vectorEEENS_28__exception_guard_exceptionsIT_EES8_, symObjAddr: 0x62A4, symBinAddr: 0x1000090B0, symSize: 0x40 }
  - { offsetInCU: 0xABEC, offset: 0xABEC, size: 0x8, addend: 0x0, symName: __ZNSt3__130__uninitialized_allocator_copyB8ue170006INS_9allocatorI7ProcessEEPS2_S4_S4_EET2_RT_T0_T1_S5_, symObjAddr: 0x6518, symBinAddr: 0x100009324, symSize: 0x80 }
  - { offsetInCU: 0xAC89, offset: 0xAC89, size: 0x8, addend: 0x0, symName: __ZNSt3__114__unwrap_rangeB8ue170006IP7ProcessS2_EENS_4pairIT0_S4_EET_S6_, symObjAddr: 0x6598, symBinAddr: 0x1000093A4, symSize: 0x60 }
  - { offsetInCU: 0xACD5, offset: 0xACD5, size: 0x8, addend: 0x0, symName: __ZNSt3__135__uninitialized_allocator_copy_implB8ue170006INS_9allocatorI7ProcessEEPS2_S4_S4_EET2_RT_T0_T1_S5_, symObjAddr: 0x65F8, symBinAddr: 0x100009404, symSize: 0xF4 }
  - { offsetInCU: 0xAD73, offset: 0xAD73, size: 0x8, addend: 0x0, symName: __ZNSt3__113__unwrap_iterB8ue170006IP7ProcessNS_18__unwrap_iter_implIS2_Lb1EEELi0EEEDTclsrT0_8__unwrapclsr3stdE7declvalIT_EEEES6_, symObjAddr: 0x66EC, symBinAddr: 0x1000094F8, symSize: 0x24 }
  - { offsetInCU: 0xADB7, offset: 0xADB7, size: 0x8, addend: 0x0, symName: __ZNSt3__113__rewrap_iterB8ue170006IP7ProcessS2_NS_18__unwrap_iter_implIS2_Lb1EEEEET_S5_T0_, symObjAddr: 0x6710, symBinAddr: 0x10000951C, symSize: 0x3C }
  - { offsetInCU: 0xAE0C, offset: 0xAE0C, size: 0x8, addend: 0x0, symName: __ZNSt3__19make_pairB8ue170006IP7ProcessS2_EENS_4pairINS_18__unwrap_ref_decayIT_E4typeENS4_IT0_E4typeEEEOS5_OS8_, symObjAddr: 0x674C, symBinAddr: 0x100009558, symSize: 0x38 }
  - { offsetInCU: 0xAF2F, offset: 0xAF2F, size: 0x8, addend: 0x0, symName: __ZNSt3__122__make_exception_guardB8ue170006INS_29_AllocatorDestroyRangeReverseINS_9allocatorI7ProcessEEPS3_EEEENS_28__exception_guard_exceptionsIT_EES8_, symObjAddr: 0x67F4, symBinAddr: 0x100009600, symSize: 0x4C }
  - { offsetInCU: 0xAF65, offset: 0xAF65, size: 0x8, addend: 0x0, symName: __ZNSt3__119__allocator_destroyB8ue170006INS_9allocatorI7ProcessEENS_16reverse_iteratorIPS2_EES6_EEvRT_T0_T1_, symObjAddr: 0x6A84, symBinAddr: 0x100009890, symSize: 0x70 }
  - { offsetInCU: 0xB01B, offset: 0xB01B, size: 0x8, addend: 0x0, symName: __ZNSt3__116__pad_and_outputB8ue170006IcNS_11char_traitsIcEEEENS_19ostreambuf_iteratorIT_T0_EES6_PKS4_S8_S8_RNS_8ios_baseES4_, symObjAddr: 0x6F4C, symBinAddr: 0x100009D58, symSize: 0x240 }
  - { offsetInCU: 0xB0EA, offset: 0xB0EA, size: 0x8, addend: 0x0, symName: __ZNSt3__119__allocate_at_leastB8ue170006INS_9allocatorImEEEENS_19__allocation_resultINS_16allocator_traitsIT_E7pointerEEERS5_m, symObjAddr: 0x781C, symBinAddr: 0x10000A628, symSize: 0x40 }
  - { offsetInCU: 0xB12D, offset: 0xB12D, size: 0x8, addend: 0x0, symName: __ZNSt3__16fill_nB8ue170006INS_6vectorIbNS_9allocatorIbEEEEEEvNS_14__bit_iteratorIT_Lb0EXLi0EEEENS6_9size_typeEb, symObjAddr: 0x7A48, symBinAddr: 0x10000A854, symSize: 0x94 }
  - { offsetInCU: 0xB17F, offset: 0xB17F, size: 0x8, addend: 0x0, symName: __ZNSt3__16fill_nB8ue170006IPmmmEET_S2_T0_RKT1_, symObjAddr: 0x7E30, symBinAddr: 0x10000AC3C, symSize: 0x44 }
  - { offsetInCU: 0xB1E2, offset: 0xB1E2, size: 0x8, addend: 0x0, symName: __ZNSt3__112__to_addressB8ue170006ImEEPT_S2_, symObjAddr: 0x7E74, symBinAddr: 0x10000AC80, symSize: 0x14 }
  - { offsetInCU: 0xB217, offset: 0xB217, size: 0x8, addend: 0x0, symName: __ZNSt3__18__fill_nB8ue170006IPmmmEET_S2_T0_RKT1_, symObjAddr: 0x7E88, symBinAddr: 0x10000AC94, symSize: 0x64 }
  - { offsetInCU: 0xB27A, offset: 0xB27A, size: 0x8, addend: 0x0, symName: __ZNSt3__121__convert_to_integralB8ue170006Em, symObjAddr: 0x7EEC, symBinAddr: 0x10000ACF8, symSize: 0x14 }
  - { offsetInCU: 0xB2A6, offset: 0xB2A6, size: 0x8, addend: 0x0, symName: __ZNSt3__16fill_nB8ue170006IPmmiEET_S2_T0_RKT1_, symObjAddr: 0x7F30, symBinAddr: 0x10000AD3C, symSize: 0x44 }
  - { offsetInCU: 0xB309, offset: 0xB309, size: 0x8, addend: 0x0, symName: __ZNSt3__18__fill_nB8ue170006IPmmiEET_S2_T0_RKT1_, symObjAddr: 0x7F74, symBinAddr: 0x10000AD80, symSize: 0x64 }
  - { offsetInCU: 0xB730, offset: 0xB730, size: 0x8, addend: 0x0, symName: __ZSt28__throw_bad_array_new_lengthB8ue170006v, symObjAddr: 0x5210, symBinAddr: 0x10000801C, symSize: 0x34 }
  - { offsetInCU: 0xBCD5, offset: 0xBCD5, size: 0x8, addend: 0x0, symName: __ZNSt3__16vectorI7ProcessNS_9allocatorIS1_EEE26__swap_out_circular_bufferERNS_14__split_bufferIS1_RS3_EE, symObjAddr: 0x4A5C, symBinAddr: 0x100007868, symSize: 0x110 }
  - { offsetInCU: 0xE2FF, offset: 0xE2FF, size: 0x8, addend: 0x0, symName: __Z13readProcessesRKNSt3__112basic_stringIcNS_11char_traitsIcEENS_9allocatorIcEEEERNS_6vectorI7ProcessNS3_IS9_EEEERi, symObjAddr: 0x0, symBinAddr: 0x100002E0C, symSize: 0x400 }
  - { offsetInCU: 0xE491, offset: 0xE491, size: 0x8, addend: 0x0, symName: __ZNSt3__114basic_ifstreamIcNS_11char_traitsIcEEEC1ERKNS_12basic_stringIcS2_NS_9allocatorIcEEEEj, symObjAddr: 0x400, symBinAddr: 0x10000320C, symSize: 0x16C }
  - { offsetInCU: 0xE4DA, offset: 0xE4DA, size: 0x8, addend: 0x0, symName: __ZNSt3__112basic_stringIcNS_11char_traitsIcEENS_9allocatorIcEEEC1B8ue170006Ev, symObjAddr: 0x56C, symBinAddr: 0x100003378, symSize: 0x2C }
  - { offsetInCU: 0xE503, offset: 0xE503, size: 0x8, addend: 0x0, symName: __ZNKSt3__19basic_iosIcNS_11char_traitsIcEEEcvbB8ue170006Ev, symObjAddr: 0x5F4, symBinAddr: 0x100003400, symSize: 0x2C }
  - { offsetInCU: 0xE527, offset: 0xE527, size: 0x8, addend: 0x0, symName: __ZNKSt3__112basic_stringIcNS_11char_traitsIcEENS_9allocatorIcEEE4findB8ue170006EPKcm, symObjAddr: 0x6CC, symBinAddr: 0x1000034D8, symSize: 0x74 }
  - { offsetInCU: 0xE56C, offset: 0xE56C, size: 0x8, addend: 0x0, symName: __ZNKSt3__112basic_stringIcNS_11char_traitsIcEENS_9allocatorIcEEE6substrB8ue170006Emm, symObjAddr: 0x740, symBinAddr: 0x10000354C, symSize: 0x68 }
  - { offsetInCU: 0xE5B4, offset: 0xE5B4, size: 0x8, addend: 0x0, symName: __ZN7ProcessC1Ev, symObjAddr: 0x7A8, symBinAddr: 0x1000035B4, symSize: 0x2C }
  - { offsetInCU: 0xE5DF, offset: 0xE5DF, size: 0x8, addend: 0x0, symName: __ZNSt3__112basic_stringIcNS_11char_traitsIcEENS_9allocatorIcEEEaSB8ue170006EOS5_, symObjAddr: 0x7D4, symBinAddr: 0x1000035E0, symSize: 0x34 }
  - { offsetInCU: 0xE612, offset: 0xE612, size: 0x8, addend: 0x0, symName: __ZNSt3__16vectorI7ProcessNS_9allocatorIS1_EEE9push_backB8ue170006ERKS1_, symObjAddr: 0x808, symBinAddr: 0x100003614, symSize: 0x6C }
  - { offsetInCU: 0xE648, offset: 0xE648, size: 0x8, addend: 0x0, symName: __ZN7ProcessD1Ev, symObjAddr: 0x874, symBinAddr: 0x100003680, symSize: 0x2C }
  - { offsetInCU: 0xE678, offset: 0xE678, size: 0x8, addend: 0x0, symName: __ZNSt3__114basic_ifstreamIcNS_11char_traitsIcEEED1Ev, symObjAddr: 0x8A0, symBinAddr: 0x1000036AC, symSize: 0x40 }
  - { offsetInCU: 0xE6A3, offset: 0xE6A3, size: 0x8, addend: 0x0, symName: __Z13calculateFCFSRNSt3__114basic_ofstreamIcNS_11char_traitsIcEEEERKNS_6vectorI7ProcessNS_9allocatorIS6_EEEEi, symObjAddr: 0x8E0, symBinAddr: 0x1000036EC, symSize: 0x380 }
  - { offsetInCU: 0xE7B6, offset: 0xE7B6, size: 0x8, addend: 0x0, symName: __ZNSt3__16vectorI7ProcessNS_9allocatorIS1_EEEC1ERKS4_, symObjAddr: 0xC60, symBinAddr: 0x100003A6C, symSize: 0x34 }
  - { offsetInCU: 0xE7F0, offset: 0xE7F0, size: 0x8, addend: 0x0, symName: __ZNKSt3__16vectorI7ProcessNS_9allocatorIS1_EEE4sizeB8ue170006Ev, symObjAddr: 0xCDC, symBinAddr: 0x100003AE8, symSize: 0x28 }
  - { offsetInCU: 0xE815, offset: 0xE815, size: 0x8, addend: 0x0, symName: __ZNSt3__16vectorI7ProcessNS_9allocatorIS1_EEEixB8ue170006Em, symObjAddr: 0xD04, symBinAddr: 0x100003B10, symSize: 0x2C }
  - { offsetInCU: 0xE84A, offset: 0xE84A, size: 0x8, addend: 0x0, symName: __ZNSt3__16vectorI7ProcessNS_9allocatorIS1_EEE5beginB8ue170006Ev, symObjAddr: 0xDA8, symBinAddr: 0x100003BB4, symSize: 0x30 }
  - { offsetInCU: 0xE870, offset: 0xE870, size: 0x8, addend: 0x0, symName: __ZNSt3__16vectorI7ProcessNS_9allocatorIS1_EEE3endB8ue170006Ev, symObjAddr: 0xDD8, symBinAddr: 0x100003BE4, symSize: 0x30 }
  - { offsetInCU: 0xE897, offset: 0xE897, size: 0x8, addend: 0x0, symName: __ZNKSt3__111__wrap_iterIP7ProcessEdeB8ue170006Ev, symObjAddr: 0xE3C, symBinAddr: 0x100003C48, symSize: 0x18 }
  - { offsetInCU: 0xE8BC, offset: 0xE8BC, size: 0x8, addend: 0x0, symName: __ZNSt3__111__wrap_iterIP7ProcessEppB8ue170006Ev, symObjAddr: 0xE54, symBinAddr: 0x100003C60, symSize: 0x20 }
  - { offsetInCU: 0xE8FF, offset: 0xE8FF, size: 0x8, addend: 0x0, symName: __ZNSt3__14pairIddEC1B8ue170006IddLPv0EEEOT_OT0_, symObjAddr: 0xE74, symBinAddr: 0x100003C80, symSize: 0x3C }
  - { offsetInCU: 0xE95C, offset: 0xE95C, size: 0x8, addend: 0x0, symName: __ZNSt3__16vectorI7ProcessNS_9allocatorIS1_EEED1B8ue170006Ev, symObjAddr: 0xEB0, symBinAddr: 0x100003CBC, symSize: 0x2C }
  - { offsetInCU: 0xE984, offset: 0xE984, size: 0x8, addend: 0x0, symName: __Z12calculateSPNRNSt3__114basic_ofstreamIcNS_11char_traitsIcEEEERKNS_6vectorI7ProcessNS_9allocatorIS6_EEEEi, symObjAddr: 0xEDC, symBinAddr: 0x100003CE8, symSize: 0x5B0 }
  - { offsetInCU: 0xEABB, offset: 0xEABB, size: 0x8, addend: 0x0, symName: __ZNSt3__16vectorIbNS_9allocatorIbEEEC1EmRKb, symObjAddr: 0x148C, symBinAddr: 0x100004298, symSize: 0x3C }
  - { offsetInCU: 0xEB04, offset: 0xEB04, size: 0x8, addend: 0x0, symName: __ZNSt3__16vectorIbNS_9allocatorIbEEEixB8ue170006Em, symObjAddr: 0x14C8, symBinAddr: 0x1000042D4, symSize: 0x3C }
  - { offsetInCU: 0xEB38, offset: 0xEB38, size: 0x8, addend: 0x0, symName: __ZNKSt3__115__bit_referenceINS_6vectorIbNS_9allocatorIbEEEELb1EEcvbB8ue170006Ev, symObjAddr: 0x1504, symBinAddr: 0x100004310, symSize: 0x2C }
  - { offsetInCU: 0xEB5D, offset: 0xEB5D, size: 0x8, addend: 0x0, symName: __ZNSt3__115__bit_referenceINS_6vectorIbNS_9allocatorIbEEEELb1EEaSB8ue170006Eb, symObjAddr: 0x1530, symBinAddr: 0x10000433C, symSize: 0x6C }
  - { offsetInCU: 0xEB90, offset: 0xEB90, size: 0x8, addend: 0x0, symName: __ZNSt3__16vectorIbNS_9allocatorIbEEED1B8ue170006Ev, symObjAddr: 0x159C, symBinAddr: 0x1000043A8, symSize: 0x2C }
  - { offsetInCU: 0xEBB8, offset: 0xEBB8, size: 0x8, addend: 0x0, symName: __Z11calculatePPRNSt3__114basic_ofstreamIcNS_11char_traitsIcEEEERKNS_6vectorI7ProcessNS_9allocatorIS6_EEEEi, symObjAddr: 0x15C8, symBinAddr: 0x1000043D4, symSize: 0x730 }
  - { offsetInCU: 0xED22, offset: 0xED22, size: 0x8, addend: 0x0, symName: __Z12calculatePRRRNSt3__114basic_ofstreamIcNS_11char_traitsIcEEEERNS_6vectorI7ProcessNS_9allocatorIS6_EEEEi, symObjAddr: 0x1D24, symBinAddr: 0x100004B30, symSize: 0x52C }
  - { offsetInCU: 0xEE68, offset: 0xEE68, size: 0x8, addend: 0x0, symName: __Z17schedulingDisplayRNSt3__114basic_ofstreamIcNS_11char_traitsIcEEEERNS_6vectorI7ProcessNS_9allocatorIS6_EEEEi, symObjAddr: 0x2250, symBinAddr: 0x10000505C, symSize: 0x2DC }
  - { offsetInCU: 0xEEE7, offset: 0xEEE7, size: 0x8, addend: 0x0, symName: __ZNSt3__113basic_ostreamIcNS_11char_traitsIcEEElsB8ue170006EPFRNS_8ios_baseES5_E, symObjAddr: 0x256C, symBinAddr: 0x100005378, symSize: 0x40 }
  - { offsetInCU: 0xEF1A, offset: 0xEF1A, size: 0x8, addend: 0x0, symName: _main, symObjAddr: 0x2608, symBinAddr: 0x100005414, symSize: 0x1EC }
  - { offsetInCU: 0xEF71, offset: 0xEF71, size: 0x8, addend: 0x0, symName: __ZNSt3__16vectorI7ProcessNS_9allocatorIS1_EEEC1B8ue170006Ev, symObjAddr: 0x27F4, symBinAddr: 0x100005600, symSize: 0x2C }
  - { offsetInCU: 0xEFB3, offset: 0xEFB3, size: 0x8, addend: 0x0, symName: __ZNSt3__114basic_ofstreamIcNS_11char_traitsIcEEEC1EPKcj, symObjAddr: 0x2B28, symBinAddr: 0x100005934, symSize: 0x16C }
  - { offsetInCU: 0xEFFC, offset: 0xEFFC, size: 0x8, addend: 0x0, symName: __ZNKSt3__19basic_iosIcNS_11char_traitsIcEEEntB8ue170006Ev, symObjAddr: 0x2C94, symBinAddr: 0x100005AA0, symSize: 0x28 }
  - { offsetInCU: 0xF020, offset: 0xF020, size: 0x8, addend: 0x0, symName: __ZNSt3__114basic_ofstreamIcNS_11char_traitsIcEEE5closeEv, symObjAddr: 0x2CBC, symBinAddr: 0x100005AC8, symSize: 0x58 }
  - { offsetInCU: 0xF04C, offset: 0xF04C, size: 0x8, addend: 0x0, symName: __ZNSt3__114basic_ofstreamIcNS_11char_traitsIcEEED1Ev, symObjAddr: 0x2D14, symBinAddr: 0x100005B20, symSize: 0x40 }
  - { offsetInCU: 0xF078, offset: 0xF078, size: 0x8, addend: 0x0, symName: __ZN7ProcessC2Ev, symObjAddr: 0x2D54, symBinAddr: 0x100005B60, symSize: 0x2C }
  - { offsetInCU: 0xF0A3, offset: 0xF0A3, size: 0x8, addend: 0x0, symName: __ZN7ProcessD2Ev, symObjAddr: 0x2D80, symBinAddr: 0x100005B8C, symSize: 0x2C }
  - { offsetInCU: 0xF0CE, offset: 0xF0CE, size: 0x8, addend: 0x0, symName: __ZNSt3__114basic_ifstreamIcNS_11char_traitsIcEEED2Ev, symObjAddr: 0x2DAC, symBinAddr: 0x100005BB8, symSize: 0x64 }
  - { offsetInCU: 0xF106, offset: 0xF106, size: 0x8, addend: 0x0, symName: __ZTv0_n24_NSt3__114basic_ifstreamIcNS_11char_traitsIcEEED1Ev, symObjAddr: 0x2E10, symBinAddr: 0x100005C1C, symSize: 0x28 }
  - { offsetInCU: 0xF12C, offset: 0xF12C, size: 0x8, addend: 0x0, symName: __ZNKSt3__16__lessIvvEclB8ue170006IiiEEbRKT_RKT0_, symObjAddr: 0x2E8C, symBinAddr: 0x100005C98, symSize: 0x34 }
  - { offsetInCU: 0xF17F, offset: 0xF17F, size: 0x8, addend: 0x0, symName: __ZNKSt3__111__wrap_iterIP7ProcessE4baseB8ue170006Ev, symObjAddr: 0x2F08, symBinAddr: 0x100005D14, symSize: 0x18 }
  - { offsetInCU: 0xF1A4, offset: 0xF1A4, size: 0x8, addend: 0x0, symName: __ZNSt3__14pairIddEC2B8ue170006IddLPv0EEEOT_OT0_, symObjAddr: 0x2F20, symBinAddr: 0x100005D2C, symSize: 0x34 }
  - { offsetInCU: 0xF200, offset: 0xF200, size: 0x8, addend: 0x0, symName: __ZNSt3__18ios_base4setfB8ue170006Ejj, symObjAddr: 0x2FA8, symBinAddr: 0x100005DB4, symSize: 0x5C }
  - { offsetInCU: 0xF254, offset: 0xF254, size: 0x8, addend: 0x0, symName: __ZNSt3__18ios_base6unsetfB8ue170006Ej, symObjAddr: 0x3004, symBinAddr: 0x100005E10, symSize: 0x28 }
  - { offsetInCU: 0xF28A, offset: 0xF28A, size: 0x8, addend: 0x0, symName: __ZNSt3__18__iom_t5C1B8ue170006Ei, symObjAddr: 0x302C, symBinAddr: 0x100005E38, symSize: 0x34 }
  - { offsetInCU: 0xF2C1, offset: 0xF2C1, size: 0x8, addend: 0x0, symName: __ZNSt3__18__iom_t5C2B8ue170006Ei, symObjAddr: 0x3060, symBinAddr: 0x100005E6C, symSize: 0x20 }
  - { offsetInCU: 0xF2F8, offset: 0xF2F8, size: 0x8, addend: 0x0, symName: __ZNSt3__114basic_ofstreamIcNS_11char_traitsIcEEED2Ev, symObjAddr: 0x3080, symBinAddr: 0x100005E8C, symSize: 0x64 }
  - { offsetInCU: 0xF330, offset: 0xF330, size: 0x8, addend: 0x0, symName: __ZTv0_n24_NSt3__114basic_ofstreamIcNS_11char_traitsIcEEED1Ev, symObjAddr: 0x30E4, symBinAddr: 0x100005EF0, symSize: 0x28 }
  - { offsetInCU: 0xF347, offset: 0xF347, size: 0x8, addend: 0x0, symName: __ZNSt3__112basic_stringIcNS_11char_traitsIcEENS_9allocatorIcEEEC2B8ue170006Ev, symObjAddr: 0x310C, symBinAddr: 0x100005F18, symSize: 0x48 }
  - { offsetInCU: 0xF375, offset: 0xF375, size: 0x8, addend: 0x0, symName: __ZNSt3__117__compressed_pairINS_12basic_stringIcNS_11char_traitsIcEENS_9allocatorIcEEE5__repES5_EC1B8ue170006INS_18__default_init_tagESA_EEOT_OT0_, symObjAddr: 0x3154, symBinAddr: 0x100005F60, symSize: 0x3C }
  - { offsetInCU: 0xF3CC, offset: 0xF3CC, size: 0x8, addend: 0x0, symName: __ZNSt3__112basic_stringIcNS_11char_traitsIcEENS_9allocatorIcEEE14__default_initB8ue170006Ev, symObjAddr: 0x319C, symBinAddr: 0x100005FA8, symSize: 0x40 }
  - { offsetInCU: 0xF3F1, offset: 0xF3F1, size: 0x8, addend: 0x0, symName: __ZNSt3__117__compressed_pairINS_12basic_stringIcNS_11char_traitsIcEENS_9allocatorIcEEE5__repES5_EC2B8ue170006INS_18__default_init_tagESA_EEOT_OT0_, symObjAddr: 0x31DC, symBinAddr: 0x100005FE8, symSize: 0x3C }
  - { offsetInCU: 0xF448, offset: 0xF448, size: 0x8, addend: 0x0, symName: __ZNSt3__122__compressed_pair_elemINS_12basic_stringIcNS_11char_traitsIcEENS_9allocatorIcEEE5__repELi0ELb0EEC2B8ue170006ENS_18__default_init_tagE, symObjAddr: 0x3218, symBinAddr: 0x100006024, symSize: 0x14 }
  - { offsetInCU: 0xF47C, offset: 0xF47C, size: 0x8, addend: 0x0, symName: __ZNSt3__122__compressed_pair_elemINS_9allocatorIcEELi1ELb1EEC2B8ue170006ENS_18__default_init_tagE, symObjAddr: 0x322C, symBinAddr: 0x100006038, symSize: 0x2C }
  - { offsetInCU: 0xF4B0, offset: 0xF4B0, size: 0x8, addend: 0x0, symName: __ZNSt3__19allocatorIcEC2B8ue170006Ev, symObjAddr: 0x3258, symBinAddr: 0x100006064, symSize: 0x2C }
  - { offsetInCU: 0xF4D9, offset: 0xF4D9, size: 0x8, addend: 0x0, symName: __ZNSt3__116__non_trivial_ifILb1ENS_9allocatorIcEEEC2B8ue170006Ev, symObjAddr: 0x3284, symBinAddr: 0x100006090, symSize: 0x14 }
  - { offsetInCU: 0xF502, offset: 0xF502, size: 0x8, addend: 0x0, symName: __ZNSt3__117__compressed_pairINS_12basic_stringIcNS_11char_traitsIcEENS_9allocatorIcEEE5__repES5_E5firstB8ue170006Ev, symObjAddr: 0x3298, symBinAddr: 0x1000060A4, symSize: 0x24 }
  - { offsetInCU: 0xF527, offset: 0xF527, size: 0x8, addend: 0x0, symName: __ZNSt3__122__compressed_pair_elemINS_12basic_stringIcNS_11char_traitsIcEENS_9allocatorIcEEE5__repELi0ELb0EE5__getB8ue170006Ev, symObjAddr: 0x32BC, symBinAddr: 0x1000060C8, symSize: 0x14 }
  - { offsetInCU: 0xF54B, offset: 0xF54B, size: 0x8, addend: 0x0, symName: __ZNSt3__112basic_stringIcNS_11char_traitsIcEENS_9allocatorIcEEE13__move_assignB8ue170006ERS5_NS_17integral_constantIbLb1EEE, symObjAddr: 0x32D0, symBinAddr: 0x1000060DC, symSize: 0xC8 }
  - { offsetInCU: 0xF58D, offset: 0xF58D, size: 0x8, addend: 0x0, symName: __ZNKSt3__112basic_stringIcNS_11char_traitsIcEENS_9allocatorIcEEE9__is_longB8ue170006Ev, symObjAddr: 0x3398, symBinAddr: 0x1000061A4, symSize: 0x38 }
  - { offsetInCU: 0xF5B2, offset: 0xF5B2, size: 0x8, addend: 0x0, symName: __ZNSt3__116allocator_traitsINS_9allocatorIcEEE10deallocateB8ue170006ERS2_Pcm, symObjAddr: 0x33D0, symBinAddr: 0x1000061DC, symSize: 0x34 }
  - { offsetInCU: 0xF5F4, offset: 0xF5F4, size: 0x8, addend: 0x0, symName: __ZNSt3__112basic_stringIcNS_11char_traitsIcEENS_9allocatorIcEEE7__allocB8ue170006Ev, symObjAddr: 0x3404, symBinAddr: 0x100006210, symSize: 0x24 }
  - { offsetInCU: 0xF619, offset: 0xF619, size: 0x8, addend: 0x0, symName: __ZNSt3__112basic_stringIcNS_11char_traitsIcEENS_9allocatorIcEEE18__get_long_pointerB8ue170006Ev, symObjAddr: 0x3428, symBinAddr: 0x100006234, symSize: 0x28 }
  - { offsetInCU: 0xF63E, offset: 0xF63E, size: 0x8, addend: 0x0, symName: __ZNKSt3__112basic_stringIcNS_11char_traitsIcEENS_9allocatorIcEEE14__get_long_capB8ue170006Ev, symObjAddr: 0x3450, symBinAddr: 0x10000625C, symSize: 0x30 }
  - { offsetInCU: 0xF663, offset: 0xF663, size: 0x8, addend: 0x0, symName: __ZNSt3__112basic_stringIcNS_11char_traitsIcEENS_9allocatorIcEEE19__move_assign_allocB8ue170006ERS5_, symObjAddr: 0x3480, symBinAddr: 0x10000628C, symSize: 0x2C }
  - { offsetInCU: 0xF697, offset: 0xF697, size: 0x8, addend: 0x0, symName: __ZNSt3__112basic_stringIcNS_11char_traitsIcEENS_9allocatorIcEEE16__set_short_sizeB8ue170006Em, symObjAddr: 0x34AC, symBinAddr: 0x1000062B8, symSize: 0x78 }
  - { offsetInCU: 0xF6CB, offset: 0xF6CB, size: 0x8, addend: 0x0, symName: __ZNSt3__111char_traitsIcE6assignB8ue170006ERcRKc, symObjAddr: 0x3524, symBinAddr: 0x100006330, symSize: 0x24 }
  - { offsetInCU: 0xF6FC, offset: 0xF6FC, size: 0x8, addend: 0x0, symName: __ZNSt3__112basic_stringIcNS_11char_traitsIcEENS_9allocatorIcEEE19__get_short_pointerB8ue170006Ev, symObjAddr: 0x3548, symBinAddr: 0x100006354, symSize: 0x28 }
  - { offsetInCU: 0xF721, offset: 0xF721, size: 0x8, addend: 0x0, symName: __ZNKSt3__117__compressed_pairINS_12basic_stringIcNS_11char_traitsIcEENS_9allocatorIcEEE5__repES5_E5firstB8ue170006Ev, symObjAddr: 0x3570, symBinAddr: 0x10000637C, symSize: 0x24 }
  - { offsetInCU: 0xF746, offset: 0xF746, size: 0x8, addend: 0x0, symName: __ZNKSt3__122__compressed_pair_elemINS_12basic_stringIcNS_11char_traitsIcEENS_9allocatorIcEEE5__repELi0ELb0EE5__getB8ue170006Ev, symObjAddr: 0x3594, symBinAddr: 0x1000063A0, symSize: 0x14 }
  - { offsetInCU: 0xF76B, offset: 0xF76B, size: 0x8, addend: 0x0, symName: __ZNSt3__19allocatorIcE10deallocateB8ue170006EPcm, symObjAddr: 0x35A8, symBinAddr: 0x1000063B4, symSize: 0x40 }
  - { offsetInCU: 0xF7AC, offset: 0xF7AC, size: 0x8, addend: 0x0, symName: __ZNSt3__117__compressed_pairINS_12basic_stringIcNS_11char_traitsIcEENS_9allocatorIcEEE5__repES5_E6secondB8ue170006Ev, symObjAddr: 0x3664, symBinAddr: 0x100006470, symSize: 0x24 }
  - { offsetInCU: 0xF7D1, offset: 0xF7D1, size: 0x8, addend: 0x0, symName: __ZNSt3__122__compressed_pair_elemINS_9allocatorIcEELi1ELb1EE5__getB8ue170006Ev, symObjAddr: 0x3688, symBinAddr: 0x100006494, symSize: 0x14 }
  - { offsetInCU: 0xF7F6, offset: 0xF7F6, size: 0x8, addend: 0x0, symName: __ZNSt3__112basic_stringIcNS_11char_traitsIcEENS_9allocatorIcEEE19__move_assign_allocB8ue170006ERS5_NS_17integral_constantIbLb1EEE, symObjAddr: 0x369C, symBinAddr: 0x1000064A8, symSize: 0x38 }
  - { offsetInCU: 0xF836, offset: 0xF836, size: 0x8, addend: 0x0, symName: __ZNSt3__114pointer_traitsIPcE10pointer_toB8ue170006ERc, symObjAddr: 0x36D4, symBinAddr: 0x1000064E0, symSize: 0x14 }
  - { offsetInCU: 0xF859, offset: 0xF859, size: 0x8, addend: 0x0, symName: __ZNSt3__19basic_iosIcNS_11char_traitsIcEEEC2B8ue170006Ev, symObjAddr: 0x36E8, symBinAddr: 0x1000064F4, symSize: 0x44 }
  - { offsetInCU: 0xF882, offset: 0xF882, size: 0x8, addend: 0x0, symName: __ZNSt3__113basic_istreamIcNS_11char_traitsIcEEEC2B8ue170006EPNS_15basic_streambufIcS2_EE, symObjAddr: 0x372C, symBinAddr: 0x100006538, symSize: 0x64 }
  - { offsetInCU: 0xF8C4, offset: 0xF8C4, size: 0x8, addend: 0x0, symName: __ZNSt3__113basic_filebufIcNS_11char_traitsIcEEE4openERKNS_12basic_stringIcS2_NS_9allocatorIcEEEEj, symObjAddr: 0x3790, symBinAddr: 0x10000659C, symSize: 0x44 }
  - { offsetInCU: 0xF907, offset: 0xF907, size: 0x8, addend: 0x0, symName: __ZNSt3__19basic_iosIcNS_11char_traitsIcEEE8setstateB8ue170006Ej, symObjAddr: 0x37D4, symBinAddr: 0x1000065E0, symSize: 0x2C }
  - { offsetInCU: 0xF93B, offset: 0xF93B, size: 0x8, addend: 0x0, symName: __ZNSt3__18ios_baseC2B8ue170006Ev, symObjAddr: 0x3800, symBinAddr: 0x10000660C, symSize: 0x24 }
  - { offsetInCU: 0xF963, offset: 0xF963, size: 0x8, addend: 0x0, symName: __ZNSt3__19basic_iosIcNS_11char_traitsIcEEE4initB8ue170006EPNS_15basic_streambufIcS2_EE, symObjAddr: 0x3824, symBinAddr: 0x100006630, symSize: 0x44 }
  - { offsetInCU: 0xF999, offset: 0xF999, size: 0x8, addend: 0x0, symName: __ZNSt3__111char_traitsIcE3eofB8ue170006Ev, symObjAddr: 0x3868, symBinAddr: 0x100006674, symSize: 0x8 }
  - { offsetInCU: 0xF9AD, offset: 0xF9AD, size: 0x8, addend: 0x0, symName: __ZNKSt3__112basic_stringIcNS_11char_traitsIcEENS_9allocatorIcEEE5c_strB8ue170006Ev, symObjAddr: 0x3870, symBinAddr: 0x10000667C, symSize: 0x24 }
  - { offsetInCU: 0xF9D2, offset: 0xF9D2, size: 0x8, addend: 0x0, symName: __ZNKSt3__112basic_stringIcNS_11char_traitsIcEENS_9allocatorIcEEE4dataB8ue170006Ev, symObjAddr: 0x3894, symBinAddr: 0x1000066A0, symSize: 0x28 }
  - { offsetInCU: 0xF9F7, offset: 0xF9F7, size: 0x8, addend: 0x0, symName: __ZNKSt3__112basic_stringIcNS_11char_traitsIcEENS_9allocatorIcEEE13__get_pointerB8ue170006Ev, symObjAddr: 0x38D0, symBinAddr: 0x1000066DC, symSize: 0x54 }
  - { offsetInCU: 0xFA1C, offset: 0xFA1C, size: 0x8, addend: 0x0, symName: __ZNKSt3__112basic_stringIcNS_11char_traitsIcEENS_9allocatorIcEEE18__get_long_pointerB8ue170006Ev, symObjAddr: 0x3924, symBinAddr: 0x100006730, symSize: 0x28 }
  - { offsetInCU: 0xFA41, offset: 0xFA41, size: 0x8, addend: 0x0, symName: __ZNKSt3__112basic_stringIcNS_11char_traitsIcEENS_9allocatorIcEEE19__get_short_pointerB8ue170006Ev, symObjAddr: 0x394C, symBinAddr: 0x100006758, symSize: 0x28 }
  - { offsetInCU: 0xFA66, offset: 0xFA66, size: 0x8, addend: 0x0, symName: __ZNSt3__114pointer_traitsIPKcE10pointer_toB8ue170006ERS1_, symObjAddr: 0x3974, symBinAddr: 0x100006780, symSize: 0x14 }
  - { offsetInCU: 0xFA88, offset: 0xFA88, size: 0x8, addend: 0x0, symName: __ZNSt3__18ios_base8setstateB8ue170006Ej, symObjAddr: 0x3988, symBinAddr: 0x100006794, symSize: 0x34 }
  - { offsetInCU: 0xFABD, offset: 0xFABD, size: 0x8, addend: 0x0, symName: __ZNKSt3__19basic_iosIcNS_11char_traitsIcEEE5widenB8ue170006Ec, symObjAddr: 0x3BF4, symBinAddr: 0x100006A00, symSize: 0x84 }
  - { offsetInCU: 0xFB11, offset: 0xFB11, size: 0x8, addend: 0x0, symName: __ZNKSt3__113basic_istreamIcNS_11char_traitsIcEEE6sentrycvbB8ue170006Ev, symObjAddr: 0x3C78, symBinAddr: 0x100006A84, symSize: 0x1C }
  - { offsetInCU: 0xFB35, offset: 0xFB35, size: 0x8, addend: 0x0, symName: __ZNSt3__112basic_stringIcNS_11char_traitsIcEENS_9allocatorIcEEE5clearB8ue170006Ev, symObjAddr: 0x3C94, symBinAddr: 0x100006AA0, symSize: 0x78 }
  - { offsetInCU: 0xFB5B, offset: 0xFB5B, size: 0x8, addend: 0x0, symName: __ZNKSt3__19basic_iosIcNS_11char_traitsIcEEE5rdbufB8ue170006Ev, symObjAddr: 0x3D0C, symBinAddr: 0x100006B18, symSize: 0x24 }
  - { offsetInCU: 0xFB82, offset: 0xFB82, size: 0x8, addend: 0x0, symName: __ZNSt3__115basic_streambufIcNS_11char_traitsIcEEE6sbumpcB8ue170006Ev, symObjAddr: 0x3D30, symBinAddr: 0x100006B3C, symSize: 0x78 }
  - { offsetInCU: 0xFBA7, offset: 0xFBA7, size: 0x8, addend: 0x0, symName: __ZNSt3__111char_traitsIcE11eq_int_typeB8ue170006Eii, symObjAddr: 0x3DA8, symBinAddr: 0x100006BB4, symSize: 0x28 }
  - { offsetInCU: 0xFBDA, offset: 0xFBDA, size: 0x8, addend: 0x0, symName: __ZNSt3__111char_traitsIcE12to_char_typeB8ue170006Ei, symObjAddr: 0x3DD0, symBinAddr: 0x100006BDC, symSize: 0x18 }
  - { offsetInCU: 0xFBFD, offset: 0xFBFD, size: 0x8, addend: 0x0, symName: __ZNSt3__111char_traitsIcE2eqEcc, symObjAddr: 0x3DE8, symBinAddr: 0x100006BF4, symSize: 0x28 }
  - { offsetInCU: 0xFC2E, offset: 0xFC2E, size: 0x8, addend: 0x0, symName: __ZNKSt3__112basic_stringIcNS_11char_traitsIcEENS_9allocatorIcEEE4sizeB8ue170006Ev, symObjAddr: 0x3E10, symBinAddr: 0x100006C1C, symSize: 0x54 }
  - { offsetInCU: 0xFC53, offset: 0xFC53, size: 0x8, addend: 0x0, symName: __ZNKSt3__112basic_stringIcNS_11char_traitsIcEENS_9allocatorIcEEE8max_sizeB8ue170006Ev, symObjAddr: 0x3E64, symBinAddr: 0x100006C70, symSize: 0xAC }
  - { offsetInCU: 0xFCA4, offset: 0xFCA4, size: 0x8, addend: 0x0, symName: __ZNSt3__18ios_base18__setstate_nothrowB8ue170006Ej, symObjAddr: 0x3F10, symBinAddr: 0x100006D1C, symSize: 0x64 }
  - { offsetInCU: 0xFCD8, offset: 0xFCD8, size: 0x8, addend: 0x0, symName: __ZNKSt3__19basic_iosIcNS_11char_traitsIcEEE10exceptionsB8ue170006Ev, symObjAddr: 0x3F74, symBinAddr: 0x100006D80, symSize: 0x24 }
  - { offsetInCU: 0xFCFD, offset: 0xFCFD, size: 0x8, addend: 0x0, symName: __ZNSt3__112basic_stringIcNS_11char_traitsIcEENS_9allocatorIcEEE15__set_long_sizeB8ue170006Em, symObjAddr: 0x3F98, symBinAddr: 0x100006DA4, symSize: 0x38 }
  - { offsetInCU: 0xFD31, offset: 0xFD31, size: 0x8, addend: 0x0, symName: __ZNKSt3__18ios_base5rdbufB8ue170006Ev, symObjAddr: 0x3FD0, symBinAddr: 0x100006DDC, symSize: 0x18 }
  - { offsetInCU: 0xFD56, offset: 0xFD56, size: 0x8, addend: 0x0, symName: __ZNSt3__111char_traitsIcE11to_int_typeB8ue170006Ec, symObjAddr: 0x3FE8, symBinAddr: 0x100006DF4, symSize: 0x14 }
  - { offsetInCU: 0xFD7A, offset: 0xFD7A, size: 0x8, addend: 0x0, symName: __ZNKSt3__112basic_stringIcNS_11char_traitsIcEENS_9allocatorIcEEE15__get_long_sizeB8ue170006Ev, symObjAddr: 0x3FFC, symBinAddr: 0x100006E08, symSize: 0x28 }
  - { offsetInCU: 0xFD9F, offset: 0xFD9F, size: 0x8, addend: 0x0, symName: __ZNKSt3__112basic_stringIcNS_11char_traitsIcEENS_9allocatorIcEEE16__get_short_sizeB8ue170006Ev, symObjAddr: 0x4024, symBinAddr: 0x100006E30, symSize: 0x34 }
  - { offsetInCU: 0xFDCE, offset: 0xFDCE, size: 0x8, addend: 0x0, symName: __ZNSt3__116allocator_traitsINS_9allocatorIcEEE8max_sizeB8ue170006IS2_vEEmRKS2_, symObjAddr: 0x4058, symBinAddr: 0x100006E64, symSize: 0x24 }
  - { offsetInCU: 0xFDFC, offset: 0xFDFC, size: 0x8, addend: 0x0, symName: __ZNKSt3__112basic_stringIcNS_11char_traitsIcEENS_9allocatorIcEEE7__allocB8ue170006Ev, symObjAddr: 0x407C, symBinAddr: 0x100006E88, symSize: 0x24 }
  - { offsetInCU: 0xFE21, offset: 0xFE21, size: 0x8, addend: 0x0, symName: __ZNSt3__114numeric_limitsImE3maxB8ue170006Ev, symObjAddr: 0x40A0, symBinAddr: 0x100006EAC, symSize: 0x14 }
  - { offsetInCU: 0xFE35, offset: 0xFE35, size: 0x8, addend: 0x0, symName: __ZNKSt3__19allocatorIcE8max_sizeB8ue170006Ev, symObjAddr: 0x40B4, symBinAddr: 0x100006EC0, symSize: 0x14 }
  - { offsetInCU: 0xFE5A, offset: 0xFE5A, size: 0x8, addend: 0x0, symName: __ZNKSt3__117__compressed_pairINS_12basic_stringIcNS_11char_traitsIcEENS_9allocatorIcEEE5__repES5_E6secondB8ue170006Ev, symObjAddr: 0x40C8, symBinAddr: 0x100006ED4, symSize: 0x24 }
  - { offsetInCU: 0xFE7F, offset: 0xFE7F, size: 0x8, addend: 0x0, symName: __ZNKSt3__122__compressed_pair_elemINS_9allocatorIcEELi1ELb1EE5__getB8ue170006Ev, symObjAddr: 0x40EC, symBinAddr: 0x100006EF8, symSize: 0x14 }
  - { offsetInCU: 0xFEA4, offset: 0xFEA4, size: 0x8, addend: 0x0, symName: __ZNSt3__123__libcpp_numeric_limitsImLb1EE3maxB8ue170006Ev, symObjAddr: 0x4100, symBinAddr: 0x100006F0C, symSize: 0x8 }
  - { offsetInCU: 0xFEB8, offset: 0xFEB8, size: 0x8, addend: 0x0, symName: __ZNKSt3__18ios_base10exceptionsB8ue170006Ev, symObjAddr: 0x4108, symBinAddr: 0x100006F14, symSize: 0x18 }
  - { offsetInCU: 0xFF0C, offset: 0xFF0C, size: 0x8, addend: 0x0, symName: __ZNKSt3__15ctypeIcE5widenB8ue170006Ec, symObjAddr: 0x414C, symBinAddr: 0x100006F58, symSize: 0x38 }
  - { offsetInCU: 0xFF40, offset: 0xFF40, size: 0x8, addend: 0x0, symName: __ZNKSt3__19basic_iosIcNS_11char_traitsIcEEE4failB8ue170006Ev, symObjAddr: 0x4184, symBinAddr: 0x100006F90, symSize: 0x28 }
  - { offsetInCU: 0xFF65, offset: 0xFF65, size: 0x8, addend: 0x0, symName: __ZNKSt3__18ios_base4failB8ue170006Ev, symObjAddr: 0x41AC, symBinAddr: 0x100006FB8, symSize: 0x28 }
  - { offsetInCU: 0xFF8C, offset: 0xFF8C, size: 0x8, addend: 0x0, symName: __ZNSt3__111char_traitsIcE6lengthB8ue170006EPKc, symObjAddr: 0x41D4, symBinAddr: 0x100006FE0, symSize: 0x34 }
  - { offsetInCU: 0xFFAF, offset: 0xFFAF, size: 0x8, addend: 0x0, symName: __ZNSt3__111char_traitsIcE4findB8ue170006EPKcmRS2_, symObjAddr: 0x4464, symBinAddr: 0x100007270, symSize: 0x70 }
  - { offsetInCU: 0xFFEE, offset: 0xFFEE, size: 0x8, addend: 0x0, symName: __ZNSt3__111char_traitsIcE7compareB8ue170006EPKcS3_m, symObjAddr: 0x44D4, symBinAddr: 0x1000072E0, symSize: 0x34 }
  - { offsetInCU: 0x1002D, offset: 0x1002D, size: 0x8, addend: 0x0, symName: __ZNSt3__19allocatorIcEC1B8ue170006Ev, symObjAddr: 0x4548, symBinAddr: 0x100007354, symSize: 0x2C }
  - { offsetInCU: 0x10056, offset: 0x10056, size: 0x8, addend: 0x0, symName: __ZNSt3__16vectorI7ProcessNS_9allocatorIS1_EEE9__end_capB8ue170006Ev, symObjAddr: 0x4574, symBinAddr: 0x100007380, symSize: 0x28 }
  - { offsetInCU: 0x1007B, offset: 0x1007B, size: 0x8, addend: 0x0, symName: __ZNSt3__16vectorI7ProcessNS_9allocatorIS1_EEE22__construct_one_at_endB8ue170006IJRKS1_EEEvDpOT_, symObjAddr: 0x459C, symBinAddr: 0x1000073A8, symSize: 0x90 }
  - { offsetInCU: 0x100C8, offset: 0x100C8, size: 0x8, addend: 0x0, symName: __ZNSt3__16vectorI7ProcessNS_9allocatorIS1_EEE21__push_back_slow_pathIRKS1_EEvOT_, symObjAddr: 0x462C, symBinAddr: 0x100007438, symSize: 0xD8 }
  - { offsetInCU: 0x10125, offset: 0x10125, size: 0x8, addend: 0x0, symName: __ZNSt3__117__compressed_pairIP7ProcessNS_9allocatorIS1_EEE5firstB8ue170006Ev, symObjAddr: 0x4704, symBinAddr: 0x100007510, symSize: 0x24 }
  - { offsetInCU: 0x1014A, offset: 0x1014A, size: 0x8, addend: 0x0, symName: __ZNSt3__122__compressed_pair_elemIP7ProcessLi0ELb0EE5__getB8ue170006Ev, symObjAddr: 0x4728, symBinAddr: 0x100007534, symSize: 0x14 }
  - { offsetInCU: 0x10188, offset: 0x10188, size: 0x8, addend: 0x0, symName: __ZNSt3__16vectorI7ProcessNS_9allocatorIS1_EEE21_ConstructTransactionC1B8ue170006ERS4_m, symObjAddr: 0x473C, symBinAddr: 0x100007548, symSize: 0x3C }
  - { offsetInCU: 0x101CF, offset: 0x101CF, size: 0x8, addend: 0x0, symName: __ZNSt3__116allocator_traitsINS_9allocatorI7ProcessEEE9constructB8ue170006IS2_JRKS2_EvEEvRS3_PT_DpOT0_, symObjAddr: 0x4778, symBinAddr: 0x100007584, symSize: 0x34 }
  - { offsetInCU: 0x10226, offset: 0x10226, size: 0x8, addend: 0x0, symName: __ZNSt3__16vectorI7ProcessNS_9allocatorIS1_EEE7__allocB8ue170006Ev, symObjAddr: 0x47AC, symBinAddr: 0x1000075B8, symSize: 0x28 }
  - { offsetInCU: 0x1024B, offset: 0x1024B, size: 0x8, addend: 0x0, symName: __ZNSt3__16vectorI7ProcessNS_9allocatorIS1_EEE21_ConstructTransactionD1B8ue170006Ev, symObjAddr: 0x47E8, symBinAddr: 0x1000075F4, symSize: 0x2C }
  - { offsetInCU: 0x10274, offset: 0x10274, size: 0x8, addend: 0x0, symName: __ZNSt3__16vectorI7ProcessNS_9allocatorIS1_EEE21_ConstructTransactionC2B8ue170006ERS4_m, symObjAddr: 0x4814, symBinAddr: 0x100007620, symSize: 0x4C }
  - { offsetInCU: 0x102BB, offset: 0x102BB, size: 0x8, addend: 0x0, symName: __ZNSt3__19allocatorI7ProcessE9constructB8ue170006IS1_JRKS1_EEEvPT_DpOT0_, symObjAddr: 0x4860, symBinAddr: 0x10000766C, symSize: 0x30 }
  - { offsetInCU: 0x10310, offset: 0x10310, size: 0x8, addend: 0x0, symName: __ZN7ProcessC1ERKS_, symObjAddr: 0x4890, symBinAddr: 0x10000769C, symSize: 0x34 }
  - { offsetInCU: 0x10344, offset: 0x10344, size: 0x8, addend: 0x0, symName: __ZN7ProcessC2ERKS_, symObjAddr: 0x48C4, symBinAddr: 0x1000076D0, symSize: 0x48 }
  - { offsetInCU: 0x10378, offset: 0x10378, size: 0x8, addend: 0x0, symName: __ZNSt3__117__compressed_pairIP7ProcessNS_9allocatorIS1_EEE6secondB8ue170006Ev, symObjAddr: 0x490C, symBinAddr: 0x100007718, symSize: 0x24 }
  - { offsetInCU: 0x1039D, offset: 0x1039D, size: 0x8, addend: 0x0, symName: __ZNSt3__122__compressed_pair_elemINS_9allocatorI7ProcessEELi1ELb1EE5__getB8ue170006Ev, symObjAddr: 0x4930, symBinAddr: 0x10000773C, symSize: 0x14 }
  - { offsetInCU: 0x103C2, offset: 0x103C2, size: 0x8, addend: 0x0, symName: __ZNSt3__16vectorI7ProcessNS_9allocatorIS1_EEE21_ConstructTransactionD2B8ue170006Ev, symObjAddr: 0x4944, symBinAddr: 0x100007750, symSize: 0x20 }
  - { offsetInCU: 0x103EA, offset: 0x103EA, size: 0x8, addend: 0x0, symName: __ZNKSt3__16vectorI7ProcessNS_9allocatorIS1_EEE11__recommendB8ue170006Em, symObjAddr: 0x4964, symBinAddr: 0x100007770, symSize: 0xB4 }
  - { offsetInCU: 0x1043E, offset: 0x1043E, size: 0x8, addend: 0x0, symName: __ZNSt3__114__split_bufferI7ProcessRNS_9allocatorIS1_EEEC1EmmS4_, symObjAddr: 0x4A18, symBinAddr: 0x100007824, symSize: 0x44 }
  - { offsetInCU: 0x10493, offset: 0x10493, size: 0x8, addend: 0x0, symName: __ZNSt3__114__split_bufferI7ProcessRNS_9allocatorIS1_EEED1Ev, symObjAddr: 0x4B6C, symBinAddr: 0x100007978, symSize: 0x2C }
  - { offsetInCU: 0x104BD, offset: 0x104BD, size: 0x8, addend: 0x0, symName: __ZNKSt3__16vectorI7ProcessNS_9allocatorIS1_EEE8max_sizeEv, symObjAddr: 0x4B98, symBinAddr: 0x1000079A4, symSize: 0x60 }
  - { offsetInCU: 0x104E4, offset: 0x104E4, size: 0x8, addend: 0x0, symName: __ZNKSt3__16vectorI7ProcessNS_9allocatorIS1_EEE20__throw_length_errorB8ue170006Ev, symObjAddr: 0x4BF8, symBinAddr: 0x100007A04, symSize: 0x1C }
  - { offsetInCU: 0x10509, offset: 0x10509, size: 0x8, addend: 0x0, symName: __ZNKSt3__16vectorI7ProcessNS_9allocatorIS1_EEE8capacityB8ue170006Ev, symObjAddr: 0x4C14, symBinAddr: 0x100007A20, symSize: 0x40 }
  - { offsetInCU: 0x10538, offset: 0x10538, size: 0x8, addend: 0x0, symName: __ZNSt3__116allocator_traitsINS_9allocatorI7ProcessEEE8max_sizeB8ue170006IS3_vEEmRKS3_, symObjAddr: 0x4CAC, symBinAddr: 0x100007AB8, symSize: 0x24 }
  - { offsetInCU: 0x10566, offset: 0x10566, size: 0x8, addend: 0x0, symName: __ZNKSt3__16vectorI7ProcessNS_9allocatorIS1_EEE7__allocB8ue170006Ev, symObjAddr: 0x4CD0, symBinAddr: 0x100007ADC, symSize: 0x28 }
  - { offsetInCU: 0x1058B, offset: 0x1058B, size: 0x8, addend: 0x0, symName: __ZNSt3__114numeric_limitsIlE3maxB8ue170006Ev, symObjAddr: 0x4CF8, symBinAddr: 0x100007B04, symSize: 0x14 }
  - { offsetInCU: 0x1059F, offset: 0x1059F, size: 0x8, addend: 0x0, symName: __ZNKSt3__16__lessIvvEclB8ue170006ImmEEbRKT_RKT0_, symObjAddr: 0x4D60, symBinAddr: 0x100007B6C, symSize: 0x34 }
  - { offsetInCU: 0x105F2, offset: 0x105F2, size: 0x8, addend: 0x0, symName: __ZNKSt3__19allocatorI7ProcessE8max_sizeB8ue170006Ev, symObjAddr: 0x4D94, symBinAddr: 0x100007BA0, symSize: 0x18 }
  - { offsetInCU: 0x10617, offset: 0x10617, size: 0x8, addend: 0x0, symName: __ZNKSt3__117__compressed_pairIP7ProcessNS_9allocatorIS1_EEE6secondB8ue170006Ev, symObjAddr: 0x4DAC, symBinAddr: 0x100007BB8, symSize: 0x24 }
  - { offsetInCU: 0x1063C, offset: 0x1063C, size: 0x8, addend: 0x0, symName: __ZNKSt3__122__compressed_pair_elemINS_9allocatorI7ProcessEELi1ELb1EE5__getB8ue170006Ev, symObjAddr: 0x4DD0, symBinAddr: 0x100007BDC, symSize: 0x14 }
  - { offsetInCU: 0x10661, offset: 0x10661, size: 0x8, addend: 0x0, symName: __ZNSt3__123__libcpp_numeric_limitsIlLb1EE3maxB8ue170006Ev, symObjAddr: 0x4DE4, symBinAddr: 0x100007BF0, symSize: 0x8 }
  - { offsetInCU: 0x10675, offset: 0x10675, size: 0x8, addend: 0x0, symName: __ZNSt12length_errorC1B8ue170006EPKc, symObjAddr: 0x4E50, symBinAddr: 0x100007C5C, symSize: 0x34 }
  - { offsetInCU: 0x106AC, offset: 0x106AC, size: 0x8, addend: 0x0, symName: __ZNSt12length_errorC2B8ue170006EPKc, symObjAddr: 0x4E84, symBinAddr: 0x100007C90, symSize: 0x4C }
  - { offsetInCU: 0x106E3, offset: 0x106E3, size: 0x8, addend: 0x0, symName: __ZNKSt3__16vectorI7ProcessNS_9allocatorIS1_EEE9__end_capB8ue170006Ev, symObjAddr: 0x4ED0, symBinAddr: 0x100007CDC, symSize: 0x28 }
  - { offsetInCU: 0x10708, offset: 0x10708, size: 0x8, addend: 0x0, symName: __ZNKSt3__117__compressed_pairIP7ProcessNS_9allocatorIS1_EEE5firstB8ue170006Ev, symObjAddr: 0x4EF8, symBinAddr: 0x100007D04, symSize: 0x24 }
  - { offsetInCU: 0x1072D, offset: 0x1072D, size: 0x8, addend: 0x0, symName: __ZNKSt3__122__compressed_pair_elemIP7ProcessLi0ELb0EE5__getB8ue170006Ev, symObjAddr: 0x4F1C, symBinAddr: 0x100007D28, symSize: 0x14 }
  - { offsetInCU: 0x10752, offset: 0x10752, size: 0x8, addend: 0x0, symName: __ZNSt3__114__split_bufferI7ProcessRNS_9allocatorIS1_EEEC2EmmS4_, symObjAddr: 0x4F84, symBinAddr: 0x100007D90, symSize: 0xE0 }
  - { offsetInCU: 0x107C9, offset: 0x107C9, size: 0x8, addend: 0x0, symName: __ZNSt3__117__compressed_pairIP7ProcessRNS_9allocatorIS1_EEEC1B8ue170006IDnS5_EEOT_OT0_, symObjAddr: 0x5064, symBinAddr: 0x100007E70, symSize: 0x3C }
  - { offsetInCU: 0x10820, offset: 0x10820, size: 0x8, addend: 0x0, symName: __ZNSt3__114__split_bufferI7ProcessRNS_9allocatorIS1_EEE7__allocB8ue170006Ev, symObjAddr: 0x50E0, symBinAddr: 0x100007EEC, symSize: 0x28 }
  - { offsetInCU: 0x10845, offset: 0x10845, size: 0x8, addend: 0x0, symName: __ZNSt3__114__split_bufferI7ProcessRNS_9allocatorIS1_EEE9__end_capB8ue170006Ev, symObjAddr: 0x5108, symBinAddr: 0x100007F14, symSize: 0x28 }
  - { offsetInCU: 0x1086A, offset: 0x1086A, size: 0x8, addend: 0x0, symName: __ZNSt3__117__compressed_pairIP7ProcessRNS_9allocatorIS1_EEEC2B8ue170006IDnS5_EEOT_OT0_, symObjAddr: 0x5130, symBinAddr: 0x100007F3C, symSize: 0x48 }
  - { offsetInCU: 0x108C1, offset: 0x108C1, size: 0x8, addend: 0x0, symName: __ZNSt3__122__compressed_pair_elemIP7ProcessLi0ELb0EEC2B8ue170006IDnvEEOT_, symObjAddr: 0x5178, symBinAddr: 0x100007F84, symSize: 0x1C }
  - { offsetInCU: 0x10902, offset: 0x10902, size: 0x8, addend: 0x0, symName: __ZNSt3__122__compressed_pair_elemIRNS_9allocatorI7ProcessEELi1ELb0EEC2B8ue170006IS4_vEEOT_, symObjAddr: 0x5194, symBinAddr: 0x100007FA0, symSize: 0x20 }
  - { offsetInCU: 0x10943, offset: 0x10943, size: 0x8, addend: 0x0, symName: __ZNSt3__19allocatorI7ProcessE8allocateB8ue170006Em, symObjAddr: 0x51B4, symBinAddr: 0x100007FC0, symSize: 0x5C }
  - { offsetInCU: 0x10976, offset: 0x10976, size: 0x8, addend: 0x0, symName: __ZNSt3__117__compressed_pairIP7ProcessRNS_9allocatorIS1_EEE6secondB8ue170006Ev, symObjAddr: 0x5290, symBinAddr: 0x10000809C, symSize: 0x28 }
  - { offsetInCU: 0x1099B, offset: 0x1099B, size: 0x8, addend: 0x0, symName: __ZNSt3__122__compressed_pair_elemIRNS_9allocatorI7ProcessEELi1ELb0EE5__getB8ue170006Ev, symObjAddr: 0x52B8, symBinAddr: 0x1000080C4, symSize: 0x18 }
  - { offsetInCU: 0x109C0, offset: 0x109C0, size: 0x8, addend: 0x0, symName: __ZNSt3__117__compressed_pairIP7ProcessRNS_9allocatorIS1_EEE5firstB8ue170006Ev, symObjAddr: 0x52D0, symBinAddr: 0x1000080DC, symSize: 0x24 }
  - { offsetInCU: 0x109E5, offset: 0x109E5, size: 0x8, addend: 0x0, symName: __ZNKSt3__16vectorI7ProcessNS_9allocatorIS1_EEE17__annotate_deleteB8ue170006Ev, symObjAddr: 0x52F4, symBinAddr: 0x100008100, symSize: 0xD4 }
  - { offsetInCU: 0x10A0A, offset: 0x10A0A, size: 0x8, addend: 0x0, symName: __ZNSt3__116reverse_iteratorIP7ProcessEC1B8ue170006ES2_, symObjAddr: 0x54F4, symBinAddr: 0x100008300, symSize: 0x34 }
  - { offsetInCU: 0x10A41, offset: 0x10A41, size: 0x8, addend: 0x0, symName: __ZNKSt3__116reverse_iteratorIP7ProcessE4baseB8ue170006Ev, symObjAddr: 0x5528, symBinAddr: 0x100008334, symSize: 0x18 }
  - { offsetInCU: 0x10A66, offset: 0x10A66, size: 0x8, addend: 0x0, symName: __ZNKSt3__16vectorI7ProcessNS_9allocatorIS1_EEE14__annotate_newB8ue170006Em, symObjAddr: 0x557C, symBinAddr: 0x100008388, symSize: 0xC8 }
  - { offsetInCU: 0x10A9A, offset: 0x10A9A, size: 0x8, addend: 0x0, symName: __ZNKSt3__16vectorI7ProcessNS_9allocatorIS1_EEE31__annotate_contiguous_containerB8ue170006EPKvS6_S6_S6_, symObjAddr: 0x5644, symBinAddr: 0x100008450, symSize: 0x20 }
  - { offsetInCU: 0x10AEF, offset: 0x10AEF, size: 0x8, addend: 0x0, symName: __ZNKSt3__16vectorI7ProcessNS_9allocatorIS1_EEE4dataB8ue170006Ev, symObjAddr: 0x5664, symBinAddr: 0x100008470, symSize: 0x28 }
  - { offsetInCU: 0x10B14, offset: 0x10B14, size: 0x8, addend: 0x0, symName: __ZNSt3__129_AllocatorDestroyRangeReverseINS_9allocatorI7ProcessEENS_16reverse_iteratorIPS2_EEEC1B8ue170006ERS3_RS6_S9_, symObjAddr: 0x56D8, symBinAddr: 0x1000084E4, symSize: 0x44 }
  - { offsetInCU: 0x10B6F, offset: 0x10B6F, size: 0x8, addend: 0x0, symName: __ZNSt3__116allocator_traitsINS_9allocatorI7ProcessEEE9constructB8ue170006IS2_JS2_EvEEvRS3_PT_DpOT0_, symObjAddr: 0x5764, symBinAddr: 0x100008570, symSize: 0x34 }
  - { offsetInCU: 0x10BC6, offset: 0x10BC6, size: 0x8, addend: 0x0, symName: __ZNKSt3__116reverse_iteratorIP7ProcessEdeB8ue170006Ev, symObjAddr: 0x57BC, symBinAddr: 0x1000085C8, symSize: 0x28 }
  - { offsetInCU: 0x10BF9, offset: 0x10BF9, size: 0x8, addend: 0x0, symName: __ZNSt3__116reverse_iteratorIP7ProcessEppB8ue170006Ev, symObjAddr: 0x57E4, symBinAddr: 0x1000085F0, symSize: 0x20 }
  - { offsetInCU: 0x10C1E, offset: 0x10C1E, size: 0x8, addend: 0x0, symName: __ZNSt3__128__exception_guard_exceptionsINS_29_AllocatorDestroyRangeReverseINS_9allocatorI7ProcessEENS_16reverse_iteratorIPS3_EEEEE10__completeB8ue170006Ev, symObjAddr: 0x5804, symBinAddr: 0x100008610, symSize: 0x1C }
  - { offsetInCU: 0x10C43, offset: 0x10C43, size: 0x8, addend: 0x0, symName: __ZNSt3__128__exception_guard_exceptionsINS_29_AllocatorDestroyRangeReverseINS_9allocatorI7ProcessEENS_16reverse_iteratorIPS3_EEEEED1B8ue170006Ev, symObjAddr: 0x5820, symBinAddr: 0x10000862C, symSize: 0x2C }
  - { offsetInCU: 0x10C6C, offset: 0x10C6C, size: 0x8, addend: 0x0, symName: __ZNSt3__128__exception_guard_exceptionsINS_29_AllocatorDestroyRangeReverseINS_9allocatorI7ProcessEENS_16reverse_iteratorIPS3_EEEEEC1B8ue170006ES8_, symObjAddr: 0x584C, symBinAddr: 0x100008658, symSize: 0x34 }
  - { offsetInCU: 0x10CA4, offset: 0x10CA4, size: 0x8, addend: 0x0, symName: __ZNSt3__128__exception_guard_exceptionsINS_29_AllocatorDestroyRangeReverseINS_9allocatorI7ProcessEENS_16reverse_iteratorIPS3_EEEEEC2B8ue170006ES8_, symObjAddr: 0x5880, symBinAddr: 0x10000868C, symSize: 0x30 }
  - { offsetInCU: 0x10CDC, offset: 0x10CDC, size: 0x8, addend: 0x0, symName: __ZNSt3__129_AllocatorDestroyRangeReverseINS_9allocatorI7ProcessEENS_16reverse_iteratorIPS2_EEEC2B8ue170006ERS3_RS6_S9_, symObjAddr: 0x58B0, symBinAddr: 0x1000086BC, symSize: 0x38 }
  - { offsetInCU: 0x10D32, offset: 0x10D32, size: 0x8, addend: 0x0, symName: __ZNSt3__19allocatorI7ProcessE9constructB8ue170006IS1_JS1_EEEvPT_DpOT0_, symObjAddr: 0x58E8, symBinAddr: 0x1000086F4, symSize: 0x30 }
  - { offsetInCU: 0x10D87, offset: 0x10D87, size: 0x8, addend: 0x0, symName: __ZN7ProcessC1EOS_, symObjAddr: 0x5918, symBinAddr: 0x100008724, symSize: 0x34 }
  - { offsetInCU: 0x10DBB, offset: 0x10DBB, size: 0x8, addend: 0x0, symName: __ZN7ProcessC2EOS_, symObjAddr: 0x594C, symBinAddr: 0x100008758, symSize: 0x48 }
  - { offsetInCU: 0x10DEF, offset: 0x10DEF, size: 0x8, addend: 0x0, symName: __ZNSt3__112basic_stringIcNS_11char_traitsIcEENS_9allocatorIcEEEC1B8ue170006EOS5_, symObjAddr: 0x5994, symBinAddr: 0x1000087A0, symSize: 0x34 }
  - { offsetInCU: 0x10E27, offset: 0x10E27, size: 0x8, addend: 0x0, symName: __ZNSt3__112basic_stringIcNS_11char_traitsIcEENS_9allocatorIcEEEC2B8ue170006EOS5_, symObjAddr: 0x59C8, symBinAddr: 0x1000087D4, symSize: 0x48 }
  - { offsetInCU: 0x10E64, offset: 0x10E64, size: 0x8, addend: 0x0, symName: __ZNSt3__119__to_address_helperINS_16reverse_iteratorIP7ProcessEEvE6__callB8ue170006ERKS4_, symObjAddr: 0x5A10, symBinAddr: 0x10000881C, symSize: 0x38 }
  - { offsetInCU: 0x10E87, offset: 0x10E87, size: 0x8, addend: 0x0, symName: __ZNKSt3__116reverse_iteratorIP7ProcessEptB8ue170006Ev, symObjAddr: 0x5A48, symBinAddr: 0x100008854, symSize: 0x24 }
  - { offsetInCU: 0x10EAC, offset: 0x10EAC, size: 0x8, addend: 0x0, symName: __ZNSt3__128__exception_guard_exceptionsINS_29_AllocatorDestroyRangeReverseINS_9allocatorI7ProcessEENS_16reverse_iteratorIPS3_EEEEED2B8ue170006Ev, symObjAddr: 0x5A6C, symBinAddr: 0x100008878, symSize: 0x50 }
  - { offsetInCU: 0x10ED5, offset: 0x10ED5, size: 0x8, addend: 0x0, symName: __ZNKSt3__129_AllocatorDestroyRangeReverseINS_9allocatorI7ProcessEENS_16reverse_iteratorIPS2_EEEclB8ue170006Ev, symObjAddr: 0x5ABC, symBinAddr: 0x1000088C8, symSize: 0xB4 }
  - { offsetInCU: 0x10EFB, offset: 0x10EFB, size: 0x8, addend: 0x0, symName: __ZNSt3__116reverse_iteratorINS0_IP7ProcessEEEC1B8ue170006ES3_, symObjAddr: 0x5BE0, symBinAddr: 0x1000089EC, symSize: 0x3C }
  - { offsetInCU: 0x10F32, offset: 0x10F32, size: 0x8, addend: 0x0, symName: __ZNSt3__116allocator_traitsINS_9allocatorI7ProcessEEE7destroyB8ue170006IS2_vEEvRS3_PT_, symObjAddr: 0x5C7C, symBinAddr: 0x100008A88, symSize: 0x2C }
  - { offsetInCU: 0x10F6F, offset: 0x10F6F, size: 0x8, addend: 0x0, symName: __ZNSt3__116reverse_iteratorINS0_IP7ProcessEEEppB8ue170006Ev, symObjAddr: 0x5CCC, symBinAddr: 0x100008AD8, symSize: 0x30 }
  - { offsetInCU: 0x10F94, offset: 0x10F94, size: 0x8, addend: 0x0, symName: __ZNKSt3__116reverse_iteratorINS0_IP7ProcessEEE4baseB8ue170006Ev, symObjAddr: 0x5CFC, symBinAddr: 0x100008B08, symSize: 0x24 }
  - { offsetInCU: 0x10FB9, offset: 0x10FB9, size: 0x8, addend: 0x0, symName: __ZNSt3__19allocatorI7ProcessE7destroyB8ue170006EPS1_, symObjAddr: 0x5D20, symBinAddr: 0x100008B2C, symSize: 0x28 }
  - { offsetInCU: 0x10FF1, offset: 0x10FF1, size: 0x8, addend: 0x0, symName: __ZNSt3__119__to_address_helperINS_16reverse_iteratorINS1_IP7ProcessEEEEvE6__callB8ue170006ERKS5_, symObjAddr: 0x5D48, symBinAddr: 0x100008B54, symSize: 0x38 }
  - { offsetInCU: 0x11014, offset: 0x11014, size: 0x8, addend: 0x0, symName: __ZNKSt3__116reverse_iteratorINS0_IP7ProcessEEEptB8ue170006Ev, symObjAddr: 0x5D80, symBinAddr: 0x100008B8C, symSize: 0x24 }
  - { offsetInCU: 0x11039, offset: 0x11039, size: 0x8, addend: 0x0, symName: __ZNKSt3__116reverse_iteratorINS0_IP7ProcessEEEdeB8ue170006Ev, symObjAddr: 0x5DA4, symBinAddr: 0x100008BB0, symSize: 0x34 }
  - { offsetInCU: 0x1106C, offset: 0x1106C, size: 0x8, addend: 0x0, symName: __ZNSt3__116reverse_iteratorIP7ProcessEmmB8ue170006Ev, symObjAddr: 0x5DD8, symBinAddr: 0x100008BE4, symSize: 0x20 }
  - { offsetInCU: 0x11091, offset: 0x11091, size: 0x8, addend: 0x0, symName: __ZNSt3__116reverse_iteratorINS0_IP7ProcessEEEC2B8ue170006ES3_, symObjAddr: 0x5DF8, symBinAddr: 0x100008C04, symSize: 0x2C }
  - { offsetInCU: 0x110C8, offset: 0x110C8, size: 0x8, addend: 0x0, symName: __ZNSt3__116reverse_iteratorIP7ProcessEC2B8ue170006ES2_, symObjAddr: 0x5E24, symBinAddr: 0x100008C30, symSize: 0x28 }
  - { offsetInCU: 0x110FF, offset: 0x110FF, size: 0x8, addend: 0x0, symName: __ZNSt3__114__split_bufferI7ProcessRNS_9allocatorIS1_EEED2Ev, symObjAddr: 0x5E4C, symBinAddr: 0x100008C58, symSize: 0x8C }
  - { offsetInCU: 0x1112A, offset: 0x1112A, size: 0x8, addend: 0x0, symName: __ZNSt3__114__split_bufferI7ProcessRNS_9allocatorIS1_EEE5clearB8ue170006Ev, symObjAddr: 0x5ED8, symBinAddr: 0x100008CE4, symSize: 0x28 }
  - { offsetInCU: 0x1114F, offset: 0x1114F, size: 0x8, addend: 0x0, symName: __ZNSt3__116allocator_traitsINS_9allocatorI7ProcessEEE10deallocateB8ue170006ERS3_PS2_m, symObjAddr: 0x5F00, symBinAddr: 0x100008D0C, symSize: 0x34 }
  - { offsetInCU: 0x11191, offset: 0x11191, size: 0x8, addend: 0x0, symName: __ZNKSt3__114__split_bufferI7ProcessRNS_9allocatorIS1_EEE8capacityB8ue170006Ev, symObjAddr: 0x5F34, symBinAddr: 0x100008D40, symSize: 0x40 }
  - { offsetInCU: 0x111B6, offset: 0x111B6, size: 0x8, addend: 0x0, symName: __ZNSt3__114__split_bufferI7ProcessRNS_9allocatorIS1_EEE17__destruct_at_endB8ue170006EPS1_, symObjAddr: 0x5F74, symBinAddr: 0x100008D80, symSize: 0x2C }
  - { offsetInCU: 0x111E8, offset: 0x111E8, size: 0x8, addend: 0x0, symName: __ZNSt3__114__split_bufferI7ProcessRNS_9allocatorIS1_EEE17__destruct_at_endB8ue170006EPS1_NS_17integral_constantIbLb0EEE, symObjAddr: 0x5FA0, symBinAddr: 0x100008DAC, symSize: 0x80 }
  - { offsetInCU: 0x11228, offset: 0x11228, size: 0x8, addend: 0x0, symName: __ZNSt3__19allocatorI7ProcessE10deallocateB8ue170006EPS1_m, symObjAddr: 0x6020, symBinAddr: 0x100008E2C, symSize: 0x44 }
  - { offsetInCU: 0x11269, offset: 0x11269, size: 0x8, addend: 0x0, symName: __ZNKSt3__114__split_bufferI7ProcessRNS_9allocatorIS1_EEE9__end_capB8ue170006Ev, symObjAddr: 0x6064, symBinAddr: 0x100008E70, symSize: 0x28 }
  - { offsetInCU: 0x1128E, offset: 0x1128E, size: 0x8, addend: 0x0, symName: __ZNKSt3__117__compressed_pairIP7ProcessRNS_9allocatorIS1_EEE5firstB8ue170006Ev, symObjAddr: 0x608C, symBinAddr: 0x100008E98, symSize: 0x24 }
  - { offsetInCU: 0x112B3, offset: 0x112B3, size: 0x8, addend: 0x0, symName: __ZNSt3__16vectorI7ProcessNS_9allocatorIS1_EEEC2ERKS4_, symObjAddr: 0x60B0, symBinAddr: 0x100008EBC, symSize: 0x94 }
  - { offsetInCU: 0x112ED, offset: 0x112ED, size: 0x8, addend: 0x0, symName: __ZNSt3__116allocator_traitsINS_9allocatorI7ProcessEEE37select_on_container_copy_constructionB8ue170006IS3_vvEES3_RKS3_, symObjAddr: 0x6144, symBinAddr: 0x100008F50, symSize: 0x10 }
  - { offsetInCU: 0x11321, offset: 0x11321, size: 0x8, addend: 0x0, symName: __ZNSt3__117__compressed_pairIP7ProcessNS_9allocatorIS1_EEEC1B8ue170006IDnS4_EEOT_OT0_, symObjAddr: 0x6154, symBinAddr: 0x100008F60, symSize: 0x3C }
  - { offsetInCU: 0x11378, offset: 0x11378, size: 0x8, addend: 0x0, symName: __ZNSt3__16vectorI7ProcessNS_9allocatorIS1_EEE16__init_with_sizeB8ue170006IPS1_S6_EEvT_T0_m, symObjAddr: 0x6190, symBinAddr: 0x100008F9C, symSize: 0xB8 }
  - { offsetInCU: 0x113EB, offset: 0x113EB, size: 0x8, addend: 0x0, symName: __ZNSt3__117__compressed_pairIP7ProcessNS_9allocatorIS1_EEEC2B8ue170006IDnS4_EEOT_OT0_, symObjAddr: 0x6248, symBinAddr: 0x100009054, symSize: 0x44 }
  - { offsetInCU: 0x11442, offset: 0x11442, size: 0x8, addend: 0x0, symName: __ZNSt3__122__compressed_pair_elemINS_9allocatorI7ProcessEELi1ELb1EEC2B8ue170006IS3_vEEOT_, symObjAddr: 0x628C, symBinAddr: 0x100009098, symSize: 0x18 }
  - { offsetInCU: 0x11483, offset: 0x11483, size: 0x8, addend: 0x0, symName: __ZNSt3__16vectorI7ProcessNS_9allocatorIS1_EEE16__destroy_vectorC1B8ue170006ERS4_, symObjAddr: 0x62E4, symBinAddr: 0x1000090F0, symSize: 0x34 }
  - { offsetInCU: 0x114BB, offset: 0x114BB, size: 0x8, addend: 0x0, symName: __ZNSt3__16vectorI7ProcessNS_9allocatorIS1_EEE11__vallocateB8ue170006Em, symObjAddr: 0x6318, symBinAddr: 0x100009124, symSize: 0xB4 }
  - { offsetInCU: 0x114FD, offset: 0x114FD, size: 0x8, addend: 0x0, symName: __ZNSt3__16vectorI7ProcessNS_9allocatorIS1_EEE18__construct_at_endIPS1_S6_EEvT_T0_m, symObjAddr: 0x63CC, symBinAddr: 0x1000091D8, symSize: 0x8C }
  - { offsetInCU: 0x11572, offset: 0x11572, size: 0x8, addend: 0x0, symName: __ZNSt3__128__exception_guard_exceptionsINS_6vectorI7ProcessNS_9allocatorIS2_EEE16__destroy_vectorEE10__completeB8ue170006Ev, symObjAddr: 0x6458, symBinAddr: 0x100009264, symSize: 0x1C }
  - { offsetInCU: 0x11597, offset: 0x11597, size: 0x8, addend: 0x0, symName: __ZNSt3__128__exception_guard_exceptionsINS_6vectorI7ProcessNS_9allocatorIS2_EEE16__destroy_vectorEED1B8ue170006Ev, symObjAddr: 0x6474, symBinAddr: 0x100009280, symSize: 0x2C }
  - { offsetInCU: 0x115C0, offset: 0x115C0, size: 0x8, addend: 0x0, symName: __ZNSt3__128__exception_guard_exceptionsINS_6vectorI7ProcessNS_9allocatorIS2_EEE16__destroy_vectorEEC1B8ue170006ES6_, symObjAddr: 0x64A0, symBinAddr: 0x1000092AC, symSize: 0x34 }
  - { offsetInCU: 0x115F7, offset: 0x115F7, size: 0x8, addend: 0x0, symName: __ZNSt3__128__exception_guard_exceptionsINS_6vectorI7ProcessNS_9allocatorIS2_EEE16__destroy_vectorEEC2B8ue170006ES6_, symObjAddr: 0x64D4, symBinAddr: 0x1000092E0, symSize: 0x24 }
  - { offsetInCU: 0x1162E, offset: 0x1162E, size: 0x8, addend: 0x0, symName: __ZNSt3__16vectorI7ProcessNS_9allocatorIS1_EEE16__destroy_vectorC2B8ue170006ERS4_, symObjAddr: 0x64F8, symBinAddr: 0x100009304, symSize: 0x20 }
  - { offsetInCU: 0x11684, offset: 0x11684, size: 0x8, addend: 0x0, symName: __ZNSt3__14pairIP7ProcessS2_EC1B8ue170006IS2_S2_LPv0EEEOT_OT0_, symObjAddr: 0x6784, symBinAddr: 0x100009590, symSize: 0x3C }
  - { offsetInCU: 0x116E1, offset: 0x116E1, size: 0x8, addend: 0x0, symName: __ZNSt3__14pairIP7ProcessS2_EC2B8ue170006IS2_S2_LPv0EEEOT_OT0_, symObjAddr: 0x67C0, symBinAddr: 0x1000095CC, symSize: 0x34 }
  - { offsetInCU: 0x1173E, offset: 0x1173E, size: 0x8, addend: 0x0, symName: __ZNSt3__129_AllocatorDestroyRangeReverseINS_9allocatorI7ProcessEEPS2_EC1B8ue170006ERS3_RS4_S7_, symObjAddr: 0x6840, symBinAddr: 0x10000964C, symSize: 0x44 }
  - { offsetInCU: 0x11794, offset: 0x11794, size: 0x8, addend: 0x0, symName: __ZNSt3__116allocator_traitsINS_9allocatorI7ProcessEEE9constructB8ue170006IS2_JRS2_EvEEvRS3_PT_DpOT0_, symObjAddr: 0x6884, symBinAddr: 0x100009690, symSize: 0x34 }
  - { offsetInCU: 0x117EB, offset: 0x117EB, size: 0x8, addend: 0x0, symName: __ZNSt3__128__exception_guard_exceptionsINS_29_AllocatorDestroyRangeReverseINS_9allocatorI7ProcessEEPS3_EEE10__completeB8ue170006Ev, symObjAddr: 0x68B8, symBinAddr: 0x1000096C4, symSize: 0x1C }
  - { offsetInCU: 0x11810, offset: 0x11810, size: 0x8, addend: 0x0, symName: __ZNSt3__128__exception_guard_exceptionsINS_29_AllocatorDestroyRangeReverseINS_9allocatorI7ProcessEEPS3_EEED1B8ue170006Ev, symObjAddr: 0x68D4, symBinAddr: 0x1000096E0, symSize: 0x2C }
  - { offsetInCU: 0x11839, offset: 0x11839, size: 0x8, addend: 0x0, symName: __ZNSt3__128__exception_guard_exceptionsINS_29_AllocatorDestroyRangeReverseINS_9allocatorI7ProcessEEPS3_EEEC1B8ue170006ES6_, symObjAddr: 0x6900, symBinAddr: 0x10000970C, symSize: 0x34 }
  - { offsetInCU: 0x11871, offset: 0x11871, size: 0x8, addend: 0x0, symName: __ZNSt3__128__exception_guard_exceptionsINS_29_AllocatorDestroyRangeReverseINS_9allocatorI7ProcessEEPS3_EEEC2B8ue170006ES6_, symObjAddr: 0x6934, symBinAddr: 0x100009740, symSize: 0x30 }
  - { offsetInCU: 0x118A9, offset: 0x118A9, size: 0x8, addend: 0x0, symName: __ZNSt3__129_AllocatorDestroyRangeReverseINS_9allocatorI7ProcessEEPS2_EC2B8ue170006ERS3_RS4_S7_, symObjAddr: 0x6964, symBinAddr: 0x100009770, symSize: 0x38 }
  - { offsetInCU: 0x118FF, offset: 0x118FF, size: 0x8, addend: 0x0, symName: __ZNSt3__19allocatorI7ProcessE9constructB8ue170006IS1_JRS1_EEEvPT_DpOT0_, symObjAddr: 0x699C, symBinAddr: 0x1000097A8, symSize: 0x30 }
  - { offsetInCU: 0x11954, offset: 0x11954, size: 0x8, addend: 0x0, symName: __ZNSt3__128__exception_guard_exceptionsINS_29_AllocatorDestroyRangeReverseINS_9allocatorI7ProcessEEPS3_EEED2B8ue170006Ev, symObjAddr: 0x69CC, symBinAddr: 0x1000097D8, symSize: 0x50 }
  - { offsetInCU: 0x1197D, offset: 0x1197D, size: 0x8, addend: 0x0, symName: __ZNKSt3__129_AllocatorDestroyRangeReverseINS_9allocatorI7ProcessEEPS2_EclB8ue170006Ev, symObjAddr: 0x6A1C, symBinAddr: 0x100009828, symSize: 0x68 }
  - { offsetInCU: 0x119A2, offset: 0x119A2, size: 0x8, addend: 0x0, symName: __ZNSt3__118__unwrap_iter_implIP7ProcessLb1EE8__unwrapB8ue170006ES2_, symObjAddr: 0x6AF4, symBinAddr: 0x100009900, symSize: 0x24 }
  - { offsetInCU: 0x119C5, offset: 0x119C5, size: 0x8, addend: 0x0, symName: __ZNSt3__118__unwrap_iter_implIP7ProcessLb1EE8__rewrapB8ue170006ES2_S2_, symObjAddr: 0x6B18, symBinAddr: 0x100009924, symSize: 0x58 }
  - { offsetInCU: 0x119F6, offset: 0x119F6, size: 0x8, addend: 0x0, symName: __ZNSt3__128__exception_guard_exceptionsINS_6vectorI7ProcessNS_9allocatorIS2_EEE16__destroy_vectorEED2B8ue170006Ev, symObjAddr: 0x6B70, symBinAddr: 0x10000997C, symSize: 0x50 }
  - { offsetInCU: 0x11A1F, offset: 0x11A1F, size: 0x8, addend: 0x0, symName: __ZNSt3__16vectorI7ProcessNS_9allocatorIS1_EEE16__destroy_vectorclB8ue170006Ev, symObjAddr: 0x6BC0, symBinAddr: 0x1000099CC, symSize: 0x90 }
  - { offsetInCU: 0x11A44, offset: 0x11A44, size: 0x8, addend: 0x0, symName: __ZNSt3__16vectorI7ProcessNS_9allocatorIS1_EEE7__clearB8ue170006Ev, symObjAddr: 0x6C50, symBinAddr: 0x100009A5C, symSize: 0x28 }
  - { offsetInCU: 0x11A69, offset: 0x11A69, size: 0x8, addend: 0x0, symName: __ZNSt3__16vectorI7ProcessNS_9allocatorIS1_EEE22__base_destruct_at_endB8ue170006EPS1_, symObjAddr: 0x6C78, symBinAddr: 0x100009A84, symSize: 0x8C }
  - { offsetInCU: 0x11AAC, offset: 0x11AAC, size: 0x8, addend: 0x0, symName: __ZNSt3__16vectorI7ProcessNS_9allocatorIS1_EEED2B8ue170006Ev, symObjAddr: 0x6D04, symBinAddr: 0x100009B10, symSize: 0x40 }
  - { offsetInCU: 0x11AF3, offset: 0x11AF3, size: 0x8, addend: 0x0, symName: __ZNKSt3__113basic_ostreamIcNS_11char_traitsIcEEE6sentrycvbB8ue170006Ev, symObjAddr: 0x6F30, symBinAddr: 0x100009D3C, symSize: 0x1C }
  - { offsetInCU: 0x11B18, offset: 0x11B18, size: 0x8, addend: 0x0, symName: __ZNSt3__119ostreambuf_iteratorIcNS_11char_traitsIcEEEC1B8ue170006ERNS_13basic_ostreamIcS2_EE, symObjAddr: 0x718C, symBinAddr: 0x100009F98, symSize: 0x34 }
  - { offsetInCU: 0x11B4F, offset: 0x11B4F, size: 0x8, addend: 0x0, symName: __ZNKSt3__18ios_base5flagsB8ue170006Ev, symObjAddr: 0x71C0, symBinAddr: 0x100009FCC, symSize: 0x18 }
  - { offsetInCU: 0x11B75, offset: 0x11B75, size: 0x8, addend: 0x0, symName: __ZNKSt3__19basic_iosIcNS_11char_traitsIcEEE4fillB8ue170006Ev, symObjAddr: 0x71D8, symBinAddr: 0x100009FE4, symSize: 0x64 }
  - { offsetInCU: 0x11B9C, offset: 0x11B9C, size: 0x8, addend: 0x0, symName: __ZNKSt3__119ostreambuf_iteratorIcNS_11char_traitsIcEEE6failedB8ue170006Ev, symObjAddr: 0x723C, symBinAddr: 0x10000A048, symSize: 0x24 }
  - { offsetInCU: 0x11BC1, offset: 0x11BC1, size: 0x8, addend: 0x0, symName: __ZNKSt3__18ios_base5widthB8ue170006Ev, symObjAddr: 0x7260, symBinAddr: 0x10000A06C, symSize: 0x18 }
  - { offsetInCU: 0x11BE8, offset: 0x11BE8, size: 0x8, addend: 0x0, symName: __ZNSt3__115basic_streambufIcNS_11char_traitsIcEEE5sputnB8ue170006EPKcl, symObjAddr: 0x7278, symBinAddr: 0x10000A084, symSize: 0x3C }
  - { offsetInCU: 0x11C29, offset: 0x11C29, size: 0x8, addend: 0x0, symName: __ZNSt3__112basic_stringIcNS_11char_traitsIcEENS_9allocatorIcEEEC1B8ue170006Emc, symObjAddr: 0x72B4, symBinAddr: 0x10000A0C0, symSize: 0x3C }
  - { offsetInCU: 0x11C70, offset: 0x11C70, size: 0x8, addend: 0x0, symName: __ZNSt3__18ios_base5widthB8ue170006El, symObjAddr: 0x72F0, symBinAddr: 0x10000A0FC, symSize: 0x2C }
  - { offsetInCU: 0x11CB5, offset: 0x11CB5, size: 0x8, addend: 0x0, symName: __ZNSt3__112basic_stringIcNS_11char_traitsIcEENS_9allocatorIcEEEC2B8ue170006Emc, symObjAddr: 0x731C, symBinAddr: 0x10000A128, symSize: 0x4C }
  - { offsetInCU: 0x11CFC, offset: 0x11CFC, size: 0x8, addend: 0x0, symName: __ZNSt3__119ostreambuf_iteratorIcNS_11char_traitsIcEEEC2B8ue170006ERNS_13basic_ostreamIcS2_EE, symObjAddr: 0x7368, symBinAddr: 0x10000A174, symSize: 0x54 }
  - { offsetInCU: 0x11D33, offset: 0x11D33, size: 0x8, addend: 0x0, symName: __ZNSt3__16vectorI7ProcessNS_9allocatorIS1_EEE11__make_iterB8ue170006EPS1_, symObjAddr: 0x73BC, symBinAddr: 0x10000A1C8, symSize: 0x30 }
  - { offsetInCU: 0x11D67, offset: 0x11D67, size: 0x8, addend: 0x0, symName: __ZNSt3__111__wrap_iterIP7ProcessEC1B8ue170006ES2_, symObjAddr: 0x73EC, symBinAddr: 0x10000A1F8, symSize: 0x34 }
  - { offsetInCU: 0x11D9E, offset: 0x11D9E, size: 0x8, addend: 0x0, symName: __ZNSt3__111__wrap_iterIP7ProcessEC2B8ue170006ES2_, symObjAddr: 0x7420, symBinAddr: 0x10000A22C, symSize: 0x20 }
  - { offsetInCU: 0x11DD5, offset: 0x11DD5, size: 0x8, addend: 0x0, symName: __ZNSt3__16vectorIbNS_9allocatorIbEEEC2EmRKb, symObjAddr: 0x7440, symBinAddr: 0x10000A24C, symSize: 0x90 }
  - { offsetInCU: 0x11E23, offset: 0x11E23, size: 0x8, addend: 0x0, symName: __ZNSt3__117__compressed_pairImNS_9allocatorImEEEC1B8ue170006IiNS_18__default_init_tagEEEOT_OT0_, symObjAddr: 0x74D0, symBinAddr: 0x10000A2DC, symSize: 0x3C }
  - { offsetInCU: 0x11E7A, offset: 0x11E7A, size: 0x8, addend: 0x0, symName: __ZNSt3__16vectorIbNS_9allocatorIbEEE11__vallocateB8ue170006Em, symObjAddr: 0x750C, symBinAddr: 0x10000A318, symSize: 0xA0 }
  - { offsetInCU: 0x11EBC, offset: 0x11EBC, size: 0x8, addend: 0x0, symName: __ZNSt3__16vectorIbNS_9allocatorIbEEE18__construct_at_endB8ue170006Emb, symObjAddr: 0x75AC, symBinAddr: 0x10000A3B8, symSize: 0x108 }
  - { offsetInCU: 0x11F10, offset: 0x11F10, size: 0x8, addend: 0x0, symName: __ZNSt3__117__compressed_pairImNS_9allocatorImEEEC2B8ue170006IiNS_18__default_init_tagEEEOT_OT0_, symObjAddr: 0x76B4, symBinAddr: 0x10000A4C0, symSize: 0x40 }
  - { offsetInCU: 0x11F67, offset: 0x11F67, size: 0x8, addend: 0x0, symName: __ZNSt3__122__compressed_pair_elemImLi0ELb0EEC2B8ue170006IivEEOT_, symObjAddr: 0x76F4, symBinAddr: 0x10000A500, symSize: 0x24 }
  - { offsetInCU: 0x11FA8, offset: 0x11FA8, size: 0x8, addend: 0x0, symName: __ZNSt3__122__compressed_pair_elemINS_9allocatorImEELi1ELb1EEC2B8ue170006ENS_18__default_init_tagE, symObjAddr: 0x7718, symBinAddr: 0x10000A524, symSize: 0x2C }
  - { offsetInCU: 0x11FDC, offset: 0x11FDC, size: 0x8, addend: 0x0, symName: __ZNSt3__19allocatorImEC2B8ue170006Ev, symObjAddr: 0x7744, symBinAddr: 0x10000A550, symSize: 0x2C }
  - { offsetInCU: 0x12005, offset: 0x12005, size: 0x8, addend: 0x0, symName: __ZNSt3__116__non_trivial_ifILb1ENS_9allocatorImEEEC2B8ue170006Ev, symObjAddr: 0x7770, symBinAddr: 0x10000A57C, symSize: 0x14 }
  - { offsetInCU: 0x1202D, offset: 0x1202D, size: 0x8, addend: 0x0, symName: __ZNKSt3__16vectorIbNS_9allocatorIbEEE8max_sizeEv, symObjAddr: 0x7784, symBinAddr: 0x10000A590, symSize: 0x7C }
  - { offsetInCU: 0x12072, offset: 0x12072, size: 0x8, addend: 0x0, symName: __ZNKSt3__16vectorIbNS_9allocatorIbEEE20__throw_length_errorB8ue170006Ev, symObjAddr: 0x7800, symBinAddr: 0x10000A60C, symSize: 0x1C }
  - { offsetInCU: 0x12097, offset: 0x12097, size: 0x8, addend: 0x0, symName: __ZNSt3__16vectorIbNS_9allocatorIbEEE7__allocB8ue170006Ev, symObjAddr: 0x785C, symBinAddr: 0x10000A668, symSize: 0x28 }
  - { offsetInCU: 0x120BC, offset: 0x120BC, size: 0x8, addend: 0x0, symName: __ZNSt3__16vectorIbNS_9allocatorIbEEE26__external_cap_to_internalB8ue170006Em, symObjAddr: 0x7884, symBinAddr: 0x10000A690, symSize: 0x24 }
  - { offsetInCU: 0x120E0, offset: 0x120E0, size: 0x8, addend: 0x0, symName: __ZNSt3__16vectorIbNS_9allocatorIbEEE5__capB8ue170006Ev, symObjAddr: 0x78A8, symBinAddr: 0x10000A6B4, symSize: 0x28 }
  - { offsetInCU: 0x1210F, offset: 0x1210F, size: 0x8, addend: 0x0, symName: __ZNSt3__116allocator_traitsINS_9allocatorImEEE8max_sizeB8ue170006IS2_vEEmRKS2_, symObjAddr: 0x78D0, symBinAddr: 0x10000A6DC, symSize: 0x24 }
  - { offsetInCU: 0x1213D, offset: 0x1213D, size: 0x8, addend: 0x0, symName: __ZNKSt3__16vectorIbNS_9allocatorIbEEE7__allocB8ue170006Ev, symObjAddr: 0x78F4, symBinAddr: 0x10000A700, symSize: 0x28 }
  - { offsetInCU: 0x12162, offset: 0x12162, size: 0x8, addend: 0x0, symName: __ZNSt3__16vectorIbNS_9allocatorIbEEE26__internal_cap_to_externalB8ue170006Em, symObjAddr: 0x791C, symBinAddr: 0x10000A728, symSize: 0x18 }
  - { offsetInCU: 0x12186, offset: 0x12186, size: 0x8, addend: 0x0, symName: __ZNKSt3__19allocatorImE8max_sizeB8ue170006Ev, symObjAddr: 0x7934, symBinAddr: 0x10000A740, symSize: 0x14 }
  - { offsetInCU: 0x121AB, offset: 0x121AB, size: 0x8, addend: 0x0, symName: __ZNKSt3__117__compressed_pairImNS_9allocatorImEEE6secondB8ue170006Ev, symObjAddr: 0x7948, symBinAddr: 0x10000A754, symSize: 0x24 }
  - { offsetInCU: 0x121D0, offset: 0x121D0, size: 0x8, addend: 0x0, symName: __ZNKSt3__122__compressed_pair_elemINS_9allocatorImEELi1ELb1EE5__getB8ue170006Ev, symObjAddr: 0x796C, symBinAddr: 0x10000A778, symSize: 0x14 }
  - { offsetInCU: 0x121F5, offset: 0x121F5, size: 0x8, addend: 0x0, symName: __ZNSt3__19allocatorImE8allocateB8ue170006Em, symObjAddr: 0x7980, symBinAddr: 0x10000A78C, symSize: 0x58 }
  - { offsetInCU: 0x12228, offset: 0x12228, size: 0x8, addend: 0x0, symName: __ZNSt3__117__compressed_pairImNS_9allocatorImEEE6secondB8ue170006Ev, symObjAddr: 0x79D8, symBinAddr: 0x10000A7E4, symSize: 0x24 }
  - { offsetInCU: 0x1224D, offset: 0x1224D, size: 0x8, addend: 0x0, symName: __ZNSt3__122__compressed_pair_elemINS_9allocatorImEELi1ELb1EE5__getB8ue170006Ev, symObjAddr: 0x79FC, symBinAddr: 0x10000A808, symSize: 0x14 }
  - { offsetInCU: 0x12272, offset: 0x12272, size: 0x8, addend: 0x0, symName: __ZNSt3__117__compressed_pairImNS_9allocatorImEEE5firstB8ue170006Ev, symObjAddr: 0x7A10, symBinAddr: 0x10000A81C, symSize: 0x24 }
  - { offsetInCU: 0x12297, offset: 0x12297, size: 0x8, addend: 0x0, symName: __ZNSt3__122__compressed_pair_elemImLi0ELb0EE5__getB8ue170006Ev, symObjAddr: 0x7A34, symBinAddr: 0x10000A840, symSize: 0x14 }
  - { offsetInCU: 0x122BC, offset: 0x122BC, size: 0x8, addend: 0x0, symName: __ZNSt3__16vectorIbNS_9allocatorIbEEE11__make_iterB8ue170006Em, symObjAddr: 0x7ADC, symBinAddr: 0x10000A8E8, symSize: 0x64 }
  - { offsetInCU: 0x122F0, offset: 0x122F0, size: 0x8, addend: 0x0, symName: __ZNSt3__114__bit_iteratorINS_6vectorIbNS_9allocatorIbEEEELb0ELm0EEC1B8ue170006ERKS5_, symObjAddr: 0x7CA0, symBinAddr: 0x10000AAAC, symSize: 0x34 }
  - { offsetInCU: 0x12328, offset: 0x12328, size: 0x8, addend: 0x0, symName: __ZNSt3__114__bit_iteratorINS_6vectorIbNS_9allocatorIbEEEELb0ELm0EEC2B8ue170006ERKS5_, symObjAddr: 0x7F00, symBinAddr: 0x10000AD0C, symSize: 0x30 }
  - { offsetInCU: 0x12360, offset: 0x12360, size: 0x8, addend: 0x0, symName: __ZNSt3__114__bit_iteratorINS_6vectorIbNS_9allocatorIbEEEELb0ELm0EEC1B8ue170006EPmj, symObjAddr: 0x7FD8, symBinAddr: 0x10000ADE4, symSize: 0x3C }
  - { offsetInCU: 0x123A7, offset: 0x123A7, size: 0x8, addend: 0x0, symName: __ZNSt3__114__bit_iteratorINS_6vectorIbNS_9allocatorIbEEEELb0ELm0EEC2B8ue170006EPmj, symObjAddr: 0x8014, symBinAddr: 0x10000AE20, symSize: 0x2C }
  - { offsetInCU: 0x123EE, offset: 0x123EE, size: 0x8, addend: 0x0, symName: __ZNSt3__16vectorIbNS_9allocatorIbEEED2B8ue170006Ev, symObjAddr: 0x8040, symBinAddr: 0x10000AE4C, symSize: 0x44 }
  - { offsetInCU: 0x12417, offset: 0x12417, size: 0x8, addend: 0x0, symName: __ZNSt3__16vectorIbNS_9allocatorIbEEE16__destroy_vectorC1B8ue170006ERS3_, symObjAddr: 0x8084, symBinAddr: 0x10000AE90, symSize: 0x34 }
  - { offsetInCU: 0x1244F, offset: 0x1244F, size: 0x8, addend: 0x0, symName: __ZNSt3__16vectorIbNS_9allocatorIbEEE16__destroy_vectorclB8ue170006Ev, symObjAddr: 0x80B8, symBinAddr: 0x10000AEC4, symSize: 0x7C }
  - { offsetInCU: 0x12474, offset: 0x12474, size: 0x8, addend: 0x0, symName: __ZNSt3__16vectorIbNS_9allocatorIbEEE16__destroy_vectorC2B8ue170006ERS3_, symObjAddr: 0x8134, symBinAddr: 0x10000AF40, symSize: 0x20 }
  - { offsetInCU: 0x124AC, offset: 0x124AC, size: 0x8, addend: 0x0, symName: __ZNSt3__116allocator_traitsINS_9allocatorImEEE10deallocateB8ue170006ERS2_Pmm, symObjAddr: 0x8154, symBinAddr: 0x10000AF60, symSize: 0x34 }
  - { offsetInCU: 0x124EE, offset: 0x124EE, size: 0x8, addend: 0x0, symName: __ZNSt3__19allocatorImE10deallocateB8ue170006EPmm, symObjAddr: 0x8188, symBinAddr: 0x10000AF94, symSize: 0x40 }
  - { offsetInCU: 0x1252F, offset: 0x1252F, size: 0x8, addend: 0x0, symName: __ZNSt3__16vectorIbNS_9allocatorIbEEE10__make_refB8ue170006Em, symObjAddr: 0x81C8, symBinAddr: 0x10000AFD4, symSize: 0x60 }
  - { offsetInCU: 0x12563, offset: 0x12563, size: 0x8, addend: 0x0, symName: __ZNSt3__115__bit_referenceINS_6vectorIbNS_9allocatorIbEEEELb1EEC1B8ue170006EPmm, symObjAddr: 0x8228, symBinAddr: 0x10000B034, symSize: 0x3C }
  - { offsetInCU: 0x125A8, offset: 0x125A8, size: 0x8, addend: 0x0, symName: __ZNSt3__115__bit_referenceINS_6vectorIbNS_9allocatorIbEEEELb1EEC2B8ue170006EPmm, symObjAddr: 0x8264, symBinAddr: 0x10000B070, symSize: 0x2C }
  - { offsetInCU: 0x125ED, offset: 0x125ED, size: 0x8, addend: 0x0, symName: __ZNSt3__18ios_base9precisionB8ue170006El, symObjAddr: 0x8290, symBinAddr: 0x10000B09C, symSize: 0x2C }
  - { offsetInCU: 0x12632, offset: 0x12632, size: 0x8, addend: 0x0, symName: __ZNSt3__16vectorI7ProcessNS_9allocatorIS1_EEEC2B8ue170006Ev, symObjAddr: 0x82BC, symBinAddr: 0x10000B0C8, symSize: 0x4C }
  - { offsetInCU: 0x1265B, offset: 0x1265B, size: 0x8, addend: 0x0, symName: __ZNSt3__117__compressed_pairIP7ProcessNS_9allocatorIS1_EEEC1B8ue170006IDnNS_18__default_init_tagEEEOT_OT0_, symObjAddr: 0x8308, symBinAddr: 0x10000B114, symSize: 0x3C }
  - { offsetInCU: 0x126B2, offset: 0x126B2, size: 0x8, addend: 0x0, symName: __ZNSt3__117__compressed_pairIP7ProcessNS_9allocatorIS1_EEEC2B8ue170006IDnNS_18__default_init_tagEEEOT_OT0_, symObjAddr: 0x8344, symBinAddr: 0x10000B150, symSize: 0x40 }
  - { offsetInCU: 0x12709, offset: 0x12709, size: 0x8, addend: 0x0, symName: __ZNSt3__122__compressed_pair_elemINS_9allocatorI7ProcessEELi1ELb1EEC2B8ue170006ENS_18__default_init_tagE, symObjAddr: 0x8384, symBinAddr: 0x10000B190, symSize: 0x2C }
  - { offsetInCU: 0x1273D, offset: 0x1273D, size: 0x8, addend: 0x0, symName: __ZNSt3__19allocatorI7ProcessEC2B8ue170006Ev, symObjAddr: 0x83B0, symBinAddr: 0x10000B1BC, symSize: 0x2C }
  - { offsetInCU: 0x12766, offset: 0x12766, size: 0x8, addend: 0x0, symName: __ZNSt3__116__non_trivial_ifILb1ENS_9allocatorI7ProcessEEEC2B8ue170006Ev, symObjAddr: 0x83DC, symBinAddr: 0x10000B1E8, symSize: 0x14 }
  - { offsetInCU: 0x1278F, offset: 0x1278F, size: 0x8, addend: 0x0, symName: __ZNSt3__115basic_streambufIcNS_11char_traitsIcEEE5sgetcB8ue170006Ev, symObjAddr: 0x83F0, symBinAddr: 0x10000B1FC, symSize: 0x70 }
  - { offsetInCU: 0x127B4, offset: 0x127B4, size: 0x8, addend: 0x0, symName: __ZNKSt3__15ctypeIcE2isB8ue170006Ejc, symObjAddr: 0x8460, symBinAddr: 0x10000B26C, symSize: 0x7C }
  - { offsetInCU: 0x127F6, offset: 0x127F6, size: 0x8, addend: 0x0, symName: __Z7isasciii, symObjAddr: 0x84DC, symBinAddr: 0x10000B2E8, symSize: 0x24 }
  - { offsetInCU: 0x12823, offset: 0x12823, size: 0x8, addend: 0x0, symName: __ZNSt3__113basic_ostreamIcNS_11char_traitsIcEEEC2B8ue170006EPNS_15basic_streambufIcS2_EE, symObjAddr: 0x8500, symBinAddr: 0x10000B30C, symSize: 0x60 }
...
